(dp1
S'hike637'
p2
VRabbit Ears Peak Trail
p3
sS'hike636'
p4
VMoffat (Rollins Pass) Road
p5
sS'hike635'
p6
VPeru Creek
p7
sS'hike634'
p8
VEast Lake Creek Trail
p9
sS'hike633'
p10
VAmerican Basin Trail
p11
sS'hike632'
p12
VBarr Lake Trail
p13
sS'hike631'
p14
VVillage Greens Park North Mountain Bike Skills Trail
p15
sS'hike630'
p16
VIndian Creek
p17
sS'hike639'
p18
VPlymouth Mountain Trail
p19
sS'hike638'
p20
VNorth Fork Shanahan Trail
p21
sS'hike1103'
p22
VUpper Sand Creek Lake Trail
p23
sS'hike1102'
p24
VWarembourg fish pond loop
p25
sS'hike1101'
p26
VMarvine Loop Trail
p27
sS'hike1100'
p28
VRed Rocks and Morrison Slide Trails
p29
sS'hike1107'
p30
VRollins Pass
p31
sS'hike1106'
p32
VGore Valley Trail
p33
sS'hike1105'
p34
VPierson Park Road
p35
sS'hike1104'
p36
VLake Ann
p37
sS'hike1109'
p38
VSpecimen Mountain Crater Trail [CLOSED]
p39
sS'hike1108'
p40
VWest Bench Trail
p41
sS'hike958'
p42
VFarish - Bullpen Trail
p43
sS'hike959'
p44
VUneva Peak
p45
sS'hike952'
p46
VGrass Creek Trail
p47
sS'hike953'
p48
VColorado Trail - Top of the World
p49
sS'hike950'
p50
VAlta Ghost Town Trail
p51
sS'hike951'
p52
VGunnison Gorge via Ute trail
p53
sS'hike956'
p54
VIdaho Springs Reservoir Via Chicago Lakes Trail
p55
sS'hike957'
p56
VRed Mountain Trail
p57
sS'hike954'
p58
VBarney Ford Trail 
p59
sS'hike955'
p60
VStandley Lake North Trail
p61
sS'hike1037'
p62
VGrizzly Gulch Trail
p63
sS'hike1036'
p64
VMule Deer to Elk Trail
p65
sS'hike1035'
p66
VFraser Experimental Forest
p67
sS'hike1034'
p68
VConundrum Hot Springs Conundrum Peak Trail
p69
sS'hike1033'
p70
VUte Canyon Trail
p71
sS'hike1032'
p72
VBear Lake to Howell Park
p73
sS'hike1031'
p74
VCoal Creek Trail 
p75
sS'hike1030'
p76
VMount Oxford
p77
sS'hike1039'
p78
VWagon Loop Trail
p79
sS'hike1038'
p80
VKelly Lake Trail
p81
sS'hike888'
p82
VChicago Basin
p83
sS'hike889'
p84
VPiedra Ice Fissures Trail
p85
sS'hike1329'
p86
VDirty Bismarck Loop Trail
p87
sS'hike1328'
p88
VJim Baker Reservior Trail
p89
sS'hike880'
p90
VCaribou Trail
p91
sS'hike1322'
p92
VJones Creek - Dutch Creek Loop
p93
sS'hike882'
p94
VArapaho Bend
p95
sS'hike883'
p96
VDream Lake Trail
p97
sS'hike884'
p98
VRidge Loop Trail
p99
sS'hike1326'
p100
VMount Richthofen Summit Trail
p101
sS'hike886'
p102
VThe Colorado Trail: Segment 3
p103
sS'hike887'
p104
VColorow Trail
p105
sS'hike408'
p106
VYankee Boy Basin Road
p107
sS'hike409'
p108
VMcNeil Trail
p109
sS'hike404'
p110
VLake Agnes Trail
p111
sS'hike405'
p112
VIndian Creek and Steven's Gulch Loop Trail
p113
sS'hike406'
p114
VLost Lakes - Devils Causeway
p115
sS'hike407'
p116
VStrawberry Park Hot Springs
p117
sS'hike400'
p118
VDoudy Draw Trail
p119
sS'hike401'
p120
VTrail 401
p121
sS'hike402'
p122
VPaul Intemann Nature Trail
p123
sS'hike403'
p124
VImogene Pass
p125
sS'hike310'
p126
VBoreas Pass Road
p127
sS'hike311'
p128
VSniktau Mountain Trail
p129
sS'hike312'
p130
VFalcon Trail
p131
sS'hike313'
p132
VBob and Betty Lakes Trail
p133
sS'hike314'
p134
VEmmaline Lake Trail
p135
sS'hike315'
p136
VThomas Lakes Trail
p137
sS'hike316'
p138
VWest Creek Falls
p139
sS'hike317'
p140
VKruger Rock Trail
p141
sS'hike318'
p142
VGilpin Lake Trail
p143
sS'hike319'
p144
VLake Constantine Trail
p145
sS'hike538'
p146
VSheep Mountain Trail
p147
sS'hike539'
p148
VUte Pass Falls
p149
sS'hike530'
p150
VSouth Platte River Greenway Trail
p151
sS'hike531'
p152
VPlatte River Greenway Trail: Adams County
p153
sS'hike532'
p154
VWashington Park-Highline Canal Ramble
p155
sS'hike533'
p156
VTunnel Drive Trail
p157
sS'hike534'
p158
VBlack Forest Regional Park
p159
sS'hike535'
p160
VGuanella Pass Trail
p161
sS'hike536'
p162
VKeystone Ski Resort Trail
p163
sS'hike537'
p164
VKelly Flats Trail
p165
sS'hike624'
p166
VMount McConnel Trail
p167
sS'hike625'
p168
VOld Fall River Road
p169
sS'hike626'
p170
VUpper Beaver Meadows Trail
p171
sS'hike627'
p172
VLion Gulch [CLOSED]
p173
sS'hike620'
p174
VInterlaken
p175
sS'hike621'
p176
VGreenhorn Trail
p177
sS'hike622'
p178
VMount Massive Trail (via North East)
p179
sS'hike623'
p180
VSand Canyon Trail
p181
sS'hike628'
p182
VBeaver Creek Loop Trail
p183
sS'hike629'
p184
VVenable-Comanche Trail
p185
sS'hike1136'
p186
VMount Herman and Raspberry Mountain Loop via Whilte Ghost Trail
p187
sS'hike1137'
p188
VThe Colorado Trail Segment 26
p189
sS'hike1134'
p190
VBear Canyon Trail to Bear Peak
p191
sS'hike1135'
p192
VZippity Do Da Trail
p193
sS'hike1132'
p194
VHowelsen Hill
p195
sS'hike1133'
p196
VWilcox Trail
p197
sS'hike1130'
p198
VWigwam Park
p199
sS'hike1131'
p200
VMiddle Lake Trail
p201
sS'hike1138'
p202
VCedar Point Nature Trail
p203
sS'hike1139'
p204
VMinnie Mine Loop
p205
sS'hike1008'
p206
VHighline Trail to Taylor Lake
p207
sS'hike1009'
p208
VAbyss Lake
p209
sS'hike1002'
p210
VTwin Lakes Trail
p211
sS'hike1003'
p212
VKelso Mountain
p213
sS'hike1000'
p214
VPenrose Trail
p215
sS'hike1001'
p216
VTwin Rock Trail
p217
sS'hike1006'
p218
VLong House Trail
p219
sS'hike1007'
p220
VElk Camp Trail
p221
sS'hike1004'
p222
VOnahu Creek Trail
p223
sS'hike1005'
p224
VGore Lake
p225
sS'hike1438'
p226
VRuby Anthricite
p227
sS'hike1318'
p228
VShipler Cabin
p229
sS'hike1319'
p230
VLincoln Creek Road
p231
sS'hike1316'
p232
VPicture Canyon Trail
p233
sS'hike1317'
p234
VWest Summit Loop 1A
p235
sS'hike1314'
p236
VWoodmen Cruise Trail
p237
sS'hike1315'
p238
VMontville Nature Trail
p239
sS'hike1312'
p240
VWonderland Lake Trail
p241
sS'hike1313'
p242
VMonument Creek Trail 715
p243
sS'hike1310'
p244
V5 Point Gulch Trail
p245
sS'hike1311'
p246
VPearl Pass
p247
sS'hike439'
p248
VDeluge Lake Trail
p249
sS'hike438'
p250
VJim Creek Trail
p251
sS'hike431'
p252
VAnne U. White Trail [CLOSED]
p253
sS'hike430'
p254
VWheeler Lake
p255
sS'hike433'
p256
VPetroglyph Point Trail
p257
sS'hike432'
p258
VM. Walter Pesman Trail
p259
sS'hike435'
p260
VDoc Holiday Grave Trail
p261
sS'hike434'
p262
VCrag Crest Trail
p263
sS'hike437'
p264
VFountain Creek Nature Trail
p265
sS'hike436'
p266
VMount Elbert East Ridge Trail
p267
sS'hike1434'
p268
VSoaring Kestral and Coyote Run Loop Trail
p269
sS'hike981'
p270
VValmont Bike Park Trails
p271
sS'hike980'
p272
VMineral Belt Trail
p273
sS'hike983'
p274
VTonahutu Creek Trail to Big Meadows
p275
sS'hike982'
p276
VLizard Rock Trail
p277
sS'hike329'
p278
VQueens Canyon Trail [CLOSED]
p279
sS'hike328'
p280
VMount Princeton Trail
p281
sS'hike987'
p282
VSouth Saint Vrain Trail
p283
sS'hike986'
p284
VWest Tennessee Lakes Trail
p285
sS'hike325'
p286
VFourmile Falls Trail
p287
sS'hike988'
p288
VStillwater Pass
p289
sS'hike327'
p290
VWashington Gulch Trail
p291
sS'hike326'
p292
VKohler Mesa Trail
p293
sS'hike321'
p294
VHeil Valley Ranch Trail
p295
sS'hike320'
p296
VUpper Box Canyon Falls
p297
sS'hike323'
p298
VHagerman Tunnel Trail
p299
sS'hike322'
p300
VRattlesnake Arches Trail
p301
sS'hike505'
p302
VBlack Bear Pass Trail
p303
sS'hike504'
p304
VCheyenne Mountain State Park Big Loop Trail
p305
sS'hike507'
p306
VYipsilon Lake Trail
p307
sS'hike506'
p308
VFall Creek Pass Trail
p309
sS'hike501'
p310
VSouth Platte River Trail
p311
sS'hike500'
p312
VHorsetooth Mountain Trail
p313
sS'hike503'
p314
VMeadow Mountain
p315
sS'hike502'
p316
VDevils Kitchen Trail
p317
sS'hike509'
p318
VMount Margaret Trail
p319
sS'hike508'
p320
VLittle French Gulch Trail
p321
sS'hike189'
p322
VUte Trail
p323
sS'hike188'
p324
VAbyss Trail
p325
sS'hike181'
p326
VBluffs Regional Park Trail
p327
sS'hike180'
p328
VEstes Cone Trail
p329
sS'hike183'
p330
VBlodgett Peak 
p331
sS'hike182'
p332
VCentennial Cone Trail
p333
sS'hike185'
p334
VMitchell Lake Trail
p335
sS'hike184'
p336
VCub Lake Trail Loop
p337
sS'hike187'
p338
VMesa-Cortina Trail to South Willow Creek Falls
p339
sS'hike186'
p340
VRabbit Mountain Loop Trail
p341
sS'hike611'
p342
VPayne Creek Trail
p343
sS'hike610'
p344
VRosalie Trail
p345
sS'hike613'
p346
VRampart Range Trail Loop
p347
sS'hike612'
p348
VGenesee Mountain Trail
p349
sS'hike615'
p350
VLa Plata Peak North Trail
p351
sS'hike614'
p352
VHumboldt Peak Trail
p353
sS'hike617'
p354
VPueblo Mountain Park Trail
p355
sS'hike616'
p356
VToll Memorial Trail
p357
sS'hike619'
p358
VGlendale Farm Trail
p359
sS'hike618'
p360
VGriffin Memorial 
p361
sS'hike1486'
p362
VRiver Ponds Trail Loop trail
p363
sS'hike1484'
p364
VUncompahgre River Walk
p365
sS'hike1485'
p366
VMayhoffer Trail Loop
p367
sS'hike1482'
p368
VFoothills Nature Trail to CCC Shelter
p369
sS'hike1483'
p370
VSinton Trail
p371
sS'hike1480'
p372
VRio Grande Trail East
p373
sS'hike1481'
p374
VSanford Trail to Timberline Trail
p375
sS'hike901'
p376
VCaribou Pass Trail
p377
sS'hike900'
p378
VNorth Backbone Trail
p379
sS'hike903'
p380
VUpper Forest Lakes Trail
p381
sS'hike902'
p382
VBuchanan Pass / Camp Dick Trail
p383
sS'hike905'
p384
VRed Mesa Loop
p385
sS'hike904'
p386
VRio Grande Trail West
p387
sS'hike907'
p388
VBabbish Gulch
p389
sS'hike906'
p390
VCapitol Creek Trail
p391
sS'hike1129'
p392
VWindsor Lake Loop Trail
p393
sS'hike1128'
p394
VBoulder Creek Greenway Path Trail
p395
sS'hike1121'
p396
VApex Open Space Complete Loop Trail
p397
sS'hike1120'
p398
VIndependence Townsite
p399
sS'hike1123'
p400
VWaldrop North Trail
p401
sS'hike1122'
p402
VFourmile Stock Trail
p403
sS'hike1125'
p404
VUpper Upper Loop Trail
p405
sS'hike1124'
p406
VLake Link Trail
p407
sS'hike1127'
p408
VPavilion Point
p409
sS'hike1126'
p410
VDeadhorse Creek
p411
sS'hike1019'
p412
VGovernment Trail
p413
sS'hike1018'
p414
VWinter Park Ski Resort Trail
p415
sS'hike1015'
p416
VRainbow Trail
p417
sS'hike1014'
p418
VTeller Farms Trails
p419
sS'hike1017'
p420
VGold Hill
p421
sS'hike1016'
p422
VMoody Hill Trail
p423
sS'hike1011'
p424
VMount Evans Summit Trail
p425
sS'hike1010'
p426
VNottingham Lake
p427
sS'hike1013'
p428
VLost Lake Campground
p429
sS'hike1012'
p430
VWyoming Trail
p431
sS'hike1301'
p432
VLower Cement Creek Trail
p433
sS'hike1300'
p434
VSilvercreek near Lake City
p435
sS'hike1303'
p436
VSan Isabel Lake Trail
p437
sS'hike1302'
p438
VChicken Creek Trail
p439
sS'hike1305'
p440
VLeft Hand Trail
p441
sS'hike1304'
p442
VNorth Deer Mountain Trail
p443
sS'hike1307'
p444
VBullion King Lake Road
p445
sS'hike1306'
p446
VBartlett Trail
p447
sS'hike1309'
p448
VMount Lamborn Trail
p449
sS'hike1308'
p450
VFlowers Trail
p451
sS'hike338'
p452
VRainbow Lake Trail
p453
sS'hike339'
p454
VHighline Canal Trail
p455
sS'hike998'
p456
VSmelter Mountain
p457
sS'hike999'
p458
VEast Portal Trailhead: Wind River and Glacier Basin Loop
p459
sS'hike996'
p460
VWest Fork to Courthouse Mountain
p461
sS'hike997'
p462
VTrail Through Time
p463
sS'hike994'
p464
VRosedale Peak Trail
p465
sS'hike995'
p466
VMonarch Crest Trail
p467
sS'hike336'
p468
VBerrypicker Trail
p469
sS'hike337'
p470
VOld Dillon Reservoir Trail
p471
sS'hike334'
p472
VChatfield Dog Park
p473
sS'hike335'
p474
VBison Peak Summit Trail
p475
sS'hike512'
p476
VReservoir Ridge Trail
p477
sS'hike513'
p478
VSpring Creek Trail
p479
sS'hike510'
p480
VRalston Creek Trail
p481
sS'hike511'
p482
VPiedra Falls Trail
p483
sS'hike516'
p484
VGanley Mountain Via Guanella Pass Scenic Byway
p485
sS'hike517'
p486
VScotsman Trail
p487
sS'hike514'
p488
VKeystone Gulch
p489
sS'hike515'
p490
VBrown's Lake Trail
p491
sS'hike518'
p492
VGibson Lake Trail
p493
sS'hike519'
p494
VRailroad Bed above Manitou Springs
p495
sS'hike196'
p496
VBergen Peak Loop Trail
p497
sS'hike197'
p498
VTempleton Trail
p499
sS'hike194'
p500
VCoyote Ridge Trail
p501
sS'hike195'
p502
VRed Rocks / Dakota Ridge Loop
p503
sS'hike192'
p504
VBurro Trail to Windy Peak
p505
sS'hike193'
p506
VRainbow Hot Springs
p507
sS'hike190'
p508
VBruin Bluff Trail Loop
p509
sS'hike191'
p510
VGoat Mountain Trail
p511
sS'hike198'
p512
VRaccoon Trail
p513
sS'hike199'
p514
VMount Spalding Trail
p515
sS'hike426'
p516
VNo Thoroughfare Canyon
p517
sS'hike427'
p518
VShadow Mountain Trail
p519
sS'hike424'
p520
VLake Estes Trail
p521
sS'hike425'
p522
VCross Creek Trail
p523
sS'hike422'
p524
VRabbit Ears Pass
p525
sS'hike423'
p526
VFancy Pass Trail
p527
sS'hike420'
p528
VShanahan Ridge Trail
p529
sS'hike421'
p530
VBrookside-McCurdy Trail
p531
sS'hike428'
p532
VOverlook Trail
p533
sS'hike429'
p534
VGarden of the Gods Loop Trail
p535
sS'hike332'
p536
VJess Weaver Trail
p537
sS'hike608'
p538
VGreenland Trail
p539
sS'hike609'
p540
VRim Trail South
p541
sS'hike606'
p542
VChuck's Loop 
p543
sS'hike607'
p544
VHankins Pass Trail
p545
sS'hike604'
p546
VNative Lake Trail
p547
sS'hike605'
p548
VLower Bear Creek Park
p549
sS'hike602'
p550
VFoothills Trail to Wonderland Lake Loop Trail
p551
sS'hike603'
p552
VHell Canyon
p553
sS'hike600'
p554
VBuffalo Peaks Loop
p555
sS'hike601'
p556
VMount Antero Trail
p557
sS'hike331'
p558
VSapphire Point Overlook Trail
p559
sS'hike992'
p560
VVasquez Peak
p561
sS'hike993'
p562
VBig Dominguez Canyon 
p563
sS'hike990'
p564
VAurora Hills Trail
p565
sS'hike991'
p566
VWheeler Geologic Area Road
p567
sS'hike691'
p568
VRim Rock Drive
p569
sS'hike690'
p570
VMt. Lincoln
p571
sS'hike161'
p572
VMount Rosa Trail
p573
sS'hike160'
p574
VBetasso Preserve Trail
p575
sS'hike167'
p576
VOdessa Lake Via Fern Lake Trail
p577
sS'hike166'
p578
VHomestead and Mesa Loop Trail
p579
sS'hike697'
p580
VNorth Rock Creek Trail
p581
sS'hike696'
p582
VPine River and Los Pinos River Trail
p583
sS'hike1158'
p584
VCoonskin Mountain Ski Trails
p585
sS'hike1159'
p586
VRiverwalk Trail
p587
sS'hike1154'
p588
VMacey Creek
p589
sS'hike1155'
p590
VHighline Loop Trail
p591
sS'hike1156'
p592
VDunes Overlook Sand Ramp Trail 
p593
sS'hike1157'
p594
VSarvis Creek
p595
sS'hike1150'
p596
VCrystal Lake Trail
p597
sS'hike1151'
p598
VChallenger Point
p599
sS'hike1152'
p600
VBarbour Forks Trail
p601
sS'hike1153'
p602
VSnodgrass Mountain Trail
p603
sS'hike1330'
p604
VEvergreen Mountain Trail
p605
sS'hike859'
p606
VBill Moore Lake Trail
p607
sS'hike858'
p608
VDifficult Creek Trail
p609
sS'hike857'
p610
VLake Park Trail
p611
sS'hike856'
p612
VNavajo Lake Trail
p613
sS'hike855'
p614
VHaflin Creek
p615
sS'hike854'
p616
VAnimas Overlook Trail
p617
sS'hike853'
p618
VJohnny Park Road
p619
sS'hike852'
p620
VEast Shore Trail
p621
sS'hike851'
p622
VFossil Creek Trail
p623
sS'hike850'
p624
VMount Elbert via Black Cloud Trail
p625
sS'hike1374'
p626
VHorn Peak Trail
p627
sS'hike1375'
p628
VBasin Trail
p629
sS'hike1376'
p630
VWeehawken Pack Trail
p631
sS'hike1377'
p632
VWolverine Trail
p633
sS'hike1370'
p634
VDry Creek
p635
sS'hike1371'
p636
VSnowmass Village Nature Trail
p637
sS'hike1372'
p638
VMontezuma to Webster Pass
p639
sS'hike1373'
p640
VTrap Park
p641
sS'hike1378'
p642
VTalon & Sundance
p643
sS'hike1379'
p644
VGranite Ridge Trail
p645
sS'hike295'
p646
VBobolink Trail
p647
sS'hike294'
p648
VCopeland Falls to Calypso Cascades
p649
sS'hike297'
p650
VThe Grottos Trail
p651
sS'hike296'
p652
VOuzel Lake Trail
p653
sS'hike291'
p654
VBen Tyler Trail
p655
sS'hike290'
p656
VBergen Peak Trail
p657
sS'hike293'
p658
VMt. Esther Trail
p659
sS'hike292'
p660
VEcho Lake Trail
p661
sS'hike299'
p662
VCherry Creek Reservoir Loop Trail
p663
sS'hike298'
p664
VDunes Trail from Pinyon Flats
p665
sS'hike1208'
p666
VRidge Route
p667
sS'hike1209'
p668
VUpper Westside to Crested Butte Trail
p669
sS'hike1200'
p670
VGreat Kiva and Chimney Rock Trails
p671
sS'hike1201'
p672
VTipperary Creek Loop
p673
sS'hike1202'
p674
VRed Cone
p675
sS'hike1203'
p676
VMissouri Mountain
p677
sS'hike1204'
p678
VBuck Trail/Bushwack
p679
sS'hike1205'
p680
VGreen Lake Trail
p681
sS'hike1206'
p682
VAvalanche Gulch via Main Range Trail
p683
sS'hike1207'
p684
VWalter Orr Roberts Weather Trail
p685
sS'hike453'
p686
VMount Shavano and Tabeguache Peak
p687
sS'hike452'
p688
VBig Dry Creek Trail
p689
sS'hike451'
p690
VHell's Hole
p691
sS'hike450'
p692
VMesa Verde National Park Scenic Drive
p693
sS'hike457'
p694
VMaroon Bells Scenic Loop Trail
p695
sS'hike456'
p696
VMule Deer, Coyote, and Elk Trails
p697
sS'hike455'
p698
VUte Trail - Tombstone Ridge
p699
sS'hike454'
p700
VYoungs Gulch
p701
sS'hike459'
p702
VSquaw Mountain Trail
p703
sS'hike458'
p704
VPulpit Rock Park Trail
p705
sS'hike679'
p706
VGill Trail
p707
sS'hike678'
p708
VCoyote Song Trail
p709
sS'hike673'
p710
VKite Lake Campground Trail
p711
sS'hike672'
p712
VManitou Park Lake Trail
p713
sS'hike671'
p714
VUte Trail from Poudre Lake to Alpine Ridge
p715
sS'hike670'
p716
VLower Box Canyon Falls
p717
sS'hike677'
p718
VEaglesmere Lakes
p719
sS'hike676'
p720
VBear Creek Trail to the Castle
p721
sS'hike675'
p722
VHall Ranch Loop
p723
sS'hike674'
p724
VPines to Peak - Bald Mountain Loop Trail
p725
sS'hike707'
p726
VUte Trail
p727
sS'hike706'
p728
VKenosha Pass to Lost Creek Wilderness 
p729
sS'hike705'
p730
VHummingbird / Songbird Loop
p731
sS'hike704'
p732
VWest Spanish Peak Trail
p733
sS'hike703'
p734
VRich Creek Trail
p735
sS'hike702'
p736
VRolling Creek Trail
p737
sS'hike701'
p738
VOh-My-God Road
p739
sS'hike700'
p740
VDeckers Cliff Trail
p741
sS'hike709'
p742
VPicketwire Canyon Trail
p743
sS'hike708'
p744
VChasm View Nature Trail
p745
sS'hike1149'
p746
VDeer Creek Trail
p747
sS'hike1148'
p748
VTucker Lake Trail
p749
sS'hike1147'
p750
VHunkidori Mine
p751
sS'hike1146'
p752
VBoggy Draw Trail
p753
sS'hike1145'
p754
VMidland Trail 
p755
sS'hike1144'
p756
VEast & West Valley Trails
p757
sS'hike1143'
p758
VRidge Trail
p759
sS'hike1142'
p760
VThe Citadel Summit Trail
p761
sS'hike1141'
p762
VWilliams Creek Trail
p763
sS'hike1140'
p764
VBaseline Trail
p765
sS'hike1323'
p766
VRabbits Ear Mesa Trail
p767
sS'hike881'
p768
VFulford Cave Trail
p769
sS'hike1321'
p770
VHorn Creek Loop
p771
sS'hike1320'
p772
VCahill Pond Trail
p773
sS'hike333'
p774
VJames Peak Trail
p775
sS'hike1327'
p776
VPacific Tarn Trail
p777
sS'hike885'
p778
VStout Creek
p779
sS'hike1325'
p780
VMount Evans Road to Dos Chappell Nature Center
p781
sS'hike1324'
p782
VEider Creek 
p783
sS'hike98'
p784
VDeer Creek Canyon Trail
p785
sS'hike99'
p786
VBlue Lake and Little Blue Lake Via Mitchell Lake Trail
p787
sS'hike94'
p788
VRaspberry Mountain Trail Via Ring the Peak Trail
p789
sS'hike95'
p790
VLily Mountain Trail
p791
sS'hike96'
p792
VShelf Lake Trail
p793
sS'hike97'
p794
VFish Creek Falls Trail
p795
sS'hike90'
p796
VPalmer Trail
p797
sS'hike91'
p798
VSouth Boulder Peak Trail
p799
sS'hike92'
p800
VMount Herman Trail
p801
sS'hike93'
p802
VPalmer Lake Reservoir Trail
p803
sS'hike848'
p804
VIowa Hill 
p805
sS'hike849'
p806
VCanyon Rim Trail to Window Rock
p807
sS'hike844'
p808
VArapaho Pass Trail (west side)
p809
sS'hike845'
p810
VChapin Pass Trail to Mount Chapin
p811
sS'hike846'
p812
VEast Snowmass Creek Overlook Trail
p813
sS'hike847'
p814
VCrosier Mountain Trail
p815
sS'hike840'
p816
VCapitol Peak
p817
sS'hike841'
p818
VMeridian Trail
p819
sS'hike842'
p820
VPenitente Canyon
p821
sS'hike843'
p822
VHolzwarth Historical Site / Never Summer Ranch
p823
sS'hike1367'
p824
VMeadowlark Trail
p825
sS'hike1366'
p826
VMount Falcon Mountain Bike Trail
p827
sS'hike1365'
p828
VHunters Lake Loop
p829
sS'hike1364'
p830
VMasontown
p831
sS'hike1363'
p832
VAnthracite Pass Trail
p833
sS'hike1362'
p834
VDeer Creek, Saints John Glacier Mountain 4x4 Loop Trail
p835
sS'hike1361'
p836
VTowhee Loop Trail
p837
sS'hike1360'
p838
VGovernor Basin 4x4 Road
p839
sS'hike1369'
p840
VTaylor Pass
p841
sS'hike1368'
p842
VHadley Gulch
p843
sS'hike282'
p844
VGolden Gate State Park Loop Trail
p845
sS'hike283'
p846
VMount Garfield
p847
sS'hike280'
p848
VShadow Pines Loop Trail
p849
sS'hike281'
p850
VKroenke Lake Trail
p851
sS'hike286'
p852
VLawn Lake Trail
p853
sS'hike287'
p854
VBear Creek Trail
p855
sS'hike284'
p856
VSloan Lake Park
p857
sS'hike285'
p858
VClear Creek Trail
p859
sS'hike288'
p860
VLionshead Rock Trail
p861
sS'hike289'
p862
VPtarmigan Trail
p863
sS'hike1219'
p864
VEngineer Mountain Trail
p865
sS'hike1218'
p866
VMain Canyon Trail
p867
sS'hike1213'
p868
VSnow Mountain Trail
p869
sS'hike1212'
p870
VPrince Creek Road
p871
sS'hike1211'
p872
VQuartz Lake
p873
sS'hike1210'
p874
VRoaring Fork Trail
p875
sS'hike1217'
p876
VCache la Poudre River Trail
p877
sS'hike1216'
p878
VElk Mountain Trail
p879
sS'hike1215'
p880
VRainbow Trail from Bear Creek
p881
sS'hike1214'
p882
VKnife Edge Trail
p883
sS'hike76'
p884
VBlue Lakes Trail
p885
sS'hike77'
p886
VShrine Ridge Trail
p887
sS'hike74'
p888
VStanley Canyon Trail
p889
sS'hike75'
p890
VPalmer Park Outer Loop Trail
p891
sS'hike72'
p892
VChimney Gulch Trail
p893
sS'hike73'
p894
VWalker Ranch Loop Trail
p895
sS'hike70'
p896
VThe Loch Lake Trail
p897
sS'hike71'
p898
VHelen Hunt Falls Trail
p899
sS'hike78'
p900
VTorreys Peak Kelso Ridge Trail
p901
sS'hike79'
p902
VDevil's Backbone Nature Trail
p903
sS'hike440'
p904
VMount Chiquita
p905
sS'hike441'
p906
VStorm King Mountain Memorial Trail
p907
sS'hike442'
p908
VFinch Lake Trail
p909
sS'hike443'
p910
VThunder Lake Trail
p911
sS'hike444'
p912
VTurkey Trot Trail
p913
sS'hike445'
p914
VAmerican Lake Trail
p915
sS'hike446'
p916
VSentinel Point Trail
p917
sS'hike447'
p918
VMaroon Creek Trail
p919
sS'hike448'
p920
VEugenia Mine
p921
sS'hike449'
p922
VMonument Canyon Trail
p923
sS'hike668'
p924
VRed Elephant Hill Empire Trail
p925
sS'hike669'
p926
VSullivan Gulch Trail
p927
sS'hike660'
p928
VIndian Peaks Wilderness: Glacier Rim Trail
p929
sS'hike661'
p930
VRaspberry Chautauqua Mountain Trail
p931
sS'hike662'
p932
VLost Creek
p933
sS'hike663'
p934
VArapahoe Glacier
p935
sS'hike664'
p936
VGreens Creek Trail
p937
sS'hike665'
p938
VPomeroy Lakes
p939
sS'hike666'
p940
VGrizzly Lake Trail
p941
sS'hike667'
p942
VRio Grande Trail
p943
sS'hike714'
p944
VLefthand Canyon Trail
p945
sS'hike715'
p946
VMcKay Lake Trail
p947
sS'hike716'
p948
VLobo Overlook and Continental Divide Trail
p949
sS'hike717'
p950
VHigh Line Canal Trail
p951
sS'hike710'
p952
VLower Dadd Gulch Trail
p953
sS'hike711'
p954
VBottomless Pit Trail
p955
sS'hike712'
p956
VGolden Eagle Trail to Bill Couch Mountain
p957
sS'hike713'
p958
VLimber Grove Trail
p959
sS'hike718'
p960
VHomestead Meadows
p961
sS'hike719'
p962
VOphir Pass Road
p963
sS'hike330'
p964
VClear Creek Trail
p965
sS'hike1172'
p966
VMemorial Forest - trails 375/717
p967
sS'hike1173'
p968
VThree Forks Trail
p969
sS'hike1170'
p970
VFour Mile House Park Trail
p971
sS'hike1171'
p972
VCascade and Portland Loop Trail
p973
sS'hike1176'
p974
VEast Plum Creek Meadows Loop Trail
p975
sS'hike1177'
p976
VHorseshoe Lake Trail
p977
sS'hike1174'
p978
VSwitzerland Trail, Gold Hill Site
p979
sS'hike1175'
p980
VBig Johnson Reservoir 
p981
sS'hike1178'
p982
VWillis Lake Trail
p983
sS'hike1179'
p984
VZapata Falls Campground
p985
sS'hike89'
p986
VMountain Lion Trail
p987
sS'hike88'
p988
VHells Hole Trail
p989
sS'hike83'
p990
VGrays Peak Trail
p991
sS'hike82'
p992
VSpruce Creek Trail
p993
sS'hike81'
p994
VWaterton Canyon Trail
p995
sS'hike80'
p996
VCastle Trail
p997
sS'hike87'
p998
VBelcher Hill Trail
p999
sS'hike86'
p1000
VFern Lake Trail
p1001
sS'hike85'
p1002
VArthur's Rock Trail
p1003
sS'hike84'
p1004
VRed Rocks Trail
p1005
sS'hike879'
p1006
VRawah Trail
p1007
sS'hike878'
p1008
VPoudre River Trail 
p1009
sS'hike1358'
p1010
VHot Springs Canyon
p1011
sS'hike1359'
p1012
VFossil Ridge Trail
p1013
sS'hike1352'
p1014
VSevenmile Creek 4x4 Road
p1015
sS'hike1353'
p1016
VHaynach Lakes Trail
p1017
sS'hike1350'
p1018
VHigh Line Canal
p1019
sS'hike1351'
p1020
VUniversity of Denver
p1021
sS'hike1356'
p1022
VFruita Paleo Trail
p1023
sS'hike1357'
p1024
VQuartz Creek Trail
p1025
sS'hike877'
p1026
VCentennial Trail
p1027
sS'hike1355'
p1028
VSpanish Peaks Traverse
p1029
sS'hike1198'
p1030
VRuybalid Trail
p1031
sS'hike1199'
p1032
VHoly Bucket Miramonte Rim Loop Trail
p1033
sS'hike1190'
p1034
VAlpine Gulch Trail
p1035
sS'hike1191'
p1036
VGunnison Bluffs via Old Spanish Trail
p1037
sS'hike1192'
p1038
VGeneva Mountain
p1039
sS'hike1193'
p1040
VMonarch Spur Trail
p1041
sS'hike1194'
p1042
VHoly Cross Wilderness - Eagle Ranger District Wilderness Area Trail
p1043
sS'hike1195'
p1044
VTwo Elk National Recreational Trail
p1045
sS'hike1196'
p1046
VChinaman Gulch and Carnage Canyon
p1047
sS'hike1197'
p1048
VPennsylvania Creek
p1049
sS'hike279'
p1050
VBighorn Creek Trail
p1051
sS'hike278'
p1052
VGold Camp Road
p1053
sS'hike277'
p1054
VStaunton Ranch Loop
p1055
sS'hike276'
p1056
VWest Ridge Trail from Loveland Pass
p1057
sS'hike275'
p1058
VMount Sneffels Classic Route - Yankee Boy Basin
p1059
sS'hike274'
p1060
VForsythe Canyon to Waterfall and Gross Reservoir
p1061
sS'hike273'
p1062
VSnowshoe Hare Trail
p1063
sS'hike272'
p1064
VMount Ida Trail
p1065
sS'hike271'
p1066
VMount Yale Summit Trail
p1067
sS'hike270'
p1068
VThe Chutes Trail
p1069
sS'hike1228'
p1070
VBallard Mountain Trail
p1071
sS'hike1229'
p1072
VDouglas County: Thunder Butte
p1073
sS'hike1226'
p1074
VLittle Bear Peak
p1075
sS'hike1227'
p1076
VIron Chest Mine
p1077
sS'hike1224'
p1078
VNorth and Middle Forks of the Swan River
p1079
sS'hike1225'
p1080
VVermillion and Golden Horn
p1081
sS'hike1222'
p1082
VHigh Point Trail
p1083
sS'hike1223'
p1084
VSaint Vrain Greenway East Trail
p1085
sS'hike1220'
p1086
VSchubarth 4x4 Road
p1087
sS'hike1221'
p1088
VPorcupine Gulch
p1089
sS'hike389'
p1090
VBear Peak via Shanahan Ridge
p1091
sS'hike388'
p1092
VBald Mountain Trail
p1093
sS'hike383'
p1094
VBlue Sky Trail
p1095
sS'hike382'
p1096
VTurquoise Lakes Trail
p1097
sS'hike381'
p1098
VMeadow Creek Trail
p1099
sS'hike380'
p1100
VKineo Mountain and Mount Buckhorn Area Trails
p1101
sS'hike387'
p1102
VMount Harvard Trail
p1103
sS'hike386'
p1104
VBeartracks Lake Trail
p1105
sS'hike385'
p1106
VSerpents Trail
p1107
sS'hike384'
p1108
VHandies Peak
p1109
sS'hike65'
p1110
VCatamount Falls Trail
p1111
sS'hike64'
p1112
VParmalee Trail Loop
p1113
sS'hike67'
p1114
VRattlesnake Gulch Trail
p1115
sS'hike66'
p1116
VFountain Valley Loop Trail
p1117
sS'hike61'
p1118
VCoyote Song Trail Loop
p1119
sS'hike60'
p1120
VGreyrock Trail
p1121
sS'hike63'
p1122
VMesa Trail
p1123
sS'hike62'
p1124
VMounts Democrat, Cameron, Lincoln, and Bross Trail
p1125
sS'hike69'
p1126
VMeadowlark Plymouth Creek Loop Trail
p1127
sS'hike68'
p1128
VRocks and Vistas Garden of the Gods Trail
p1129
sS'hike871'
p1130
VRed Rocks Campground
p1131
sS'hike479'
p1132
VQuail Lake Trail
p1133
sS'hike478'
p1134
VBoulder Canyon Creek Trail
p1135
sS'hike870'
p1136
VSan Juan Skyway
p1137
sS'hike475'
p1138
VByers Peak Trail
p1139
sS'hike474'
p1140
VCoulson Gulch Trail
p1141
sS'hike477'
p1142
VCow Creek to Gem Lake
p1143
sS'hike476'
p1144
VFalls Creek Loop
p1145
sS'hike471'
p1146
VCheyenne Mtn. State Park Loop
p1147
sS'hike873'
p1148
VHorsetooth Peak
p1149
sS'hike473'
p1150
VMica Mines Trail
p1151
sS'hike472'
p1152
VFoothills Trail: Maxwell Natural Area
p1153
sS'hike655'
p1154
VMosca Pass Trail
p1155
sS'hike654'
p1156
VWell Gulch Natural Trail
p1157
sS'hike657'
p1158
VColorado River Trail
p1159
sS'hike872'
p1160
VHalf Moon Trail
p1161
sS'hike651'
p1162
VPoplar Gulch
p1163
sS'hike650'
p1164
VBuffalo Creek Trail
p1165
sS'hike653'
p1166
VLittle Rainbow
p1167
sS'hike652'
p1168
VNorth Inlet Trail to Lake Nokoni
p1169
sS'hike875'
p1170
VTanner Trail
p1171
sS'hike659'
p1172
VForest and Meadow Loop Trail
p1173
sS'hike658'
p1174
VLichen Loop Trail
p1175
sS'hike129'
p1176
VBuffalo Mountain Trail
p1177
sS'hike874'
p1178
VUneva Pass Trail
p1179
sS'hike497'
p1180
VMonte Cristo Gulch
p1181
sS'hike496'
p1182
VColorado Trail to Gudy's
p1183
sS'hike495'
p1184
VTowhee and Homestead Trails
p1185
sS'hike494'
p1186
VNorth Halfmoon Lakes
p1187
sS'hike493'
p1188
VNational Center for Atmospheric Research (NCAR) Ramble Trail
p1189
sS'hike492'
p1190
VHessie Trail to Lost Lake Trail
p1191
sS'hike491'
p1192
VMiddle St. Vrain Trail
p1193
sS'hike490'
p1194
VRim Rock Creek Trail 
p1195
sS'hike876'
p1196
VCrosier Mountain Trail via H Bar G Ranch Trail
p1197
sS'hike499'
p1198
VKingston Peak
p1199
sS'hike498'
p1200
VGeneva Lake Loop Trail
p1201
sS'hike721'
p1202
VSunny Aspen Loop Trail
p1203
sS'hike720'
p1204
VGrizzly Peak
p1205
sS'hike723'
p1206
VGlenwood Canyon: Riding the Interstate
p1207
sS'hike722'
p1208
VBuchanan Pass Trail
p1209
sS'hike725'
p1210
VCorkscrew Gulch
p1211
sS'hike724'
p1212
VVan Bibber Park Trail
p1213
sS'hike727'
p1214
VPawnee Buttes Trail
p1215
sS'hike726'
p1216
VColumbine Lake Trail
p1217
sS'hike729'
p1218
VBooth Lake
p1219
sS'hike728'
p1220
VChihuahua Gulch Trail
p1221
sS'hike1428'
p1222
VDevils Creek and Lake
p1223
sS'hike1429'
p1224
VMartinez Creek Trail to Windy Pass
p1225
sS'hike1420'
p1226
VMiller Rock 4x4 Trail
p1227
sS'hike1421'
p1228
VKineo Mountain via Seven Bridges Trail
p1229
sS'hike1422'
p1230
VCreekside Fraser Forest
p1231
sS'hike1423'
p1232
VNorth Fork Trail
p1233
sS'hike1424'
p1234
VMandall Lakes Trail (#1121)
p1235
sS'hike1425'
p1236
VAlta to Sunshine Trail
p1237
sS'hike1426'
p1238
VPaul's Point (Spring Gulch Trail System)
p1239
sS'hike1427'
p1240
VBlue Grouse Trail
p1241
sS'hike1165'
p1242
VEagle Trail
p1243
sS'hike1164'
p1244
VSale Barn - South Rim - Cowboy Loop
p1245
sS'hike1167'
p1246
VTwin Cones
p1247
sS'hike1166'
p1248
VFourmile Area Trail
p1249
sS'hike1161'
p1250
VTunnel Lake Trail
p1251
sS'hike1160'
p1252
VMissouri Mountain Trail 
p1253
sS'hike1163'
p1254
VLyle/Mormon Lakes Trail
p1255
sS'hike1162'
p1256
VPetroleum and Anderson Lakes Trail
p1257
sS'hike1169'
p1258
VPass Trail to Engineer Mountain Trail
p1259
sS'hike1168'
p1260
VBluebell Mesa Loop
p1261
sS'hike656'
p1262
VColorado Trail (From South Platte)
p1263
sS'hike866'
p1264
VRock Creek Trail
p1265
sS'hike867'
p1266
VLong Gulch
p1267
sS'hike864'
p1268
VRim Rock Nature Trail
p1269
sS'hike865'
p1270
VMount Lincoln Trail
p1271
sS'hike862'
p1272
VAlmagre Mountain Trail
p1273
sS'hike863'
p1274
VLenawee Trail
p1275
sS'hike860'
p1276
VMt. Huron Trail
p1277
sS'hike861'
p1278
VDakota Trail
p1279
sS'hike868'
p1280
VVillage Road Trail
p1281
sS'hike869'
p1282
VEmerald Mountain Trail
p1283
sS'hike1349'
p1284
VHorsetooth Falls Loop Trail
p1285
sS'hike1348'
p1286
VSilver Creek Trail
p1287
sS'hike1345'
p1288
VPoverty Gulch Trail to Pilot Knob
p1289
sS'hike1344'
p1290
VPinyon Flats to Medano Pass
p1291
sS'hike1347'
p1292
VDeadman's Gulch (Reno-Flag-Bear-Deadman's)
p1293
sS'hike1346'
p1294
VKettle Ponds
p1295
sS'hike1341'
p1296
VMoon and Gamble Gulches 4x4 Trails
p1297
sS'hike1340'
p1298
VWild Cherry Creek
p1299
sS'hike1343'
p1300
VRincon La Vaca and Rio Grande Pyramid
p1301
sS'hike1342'
p1302
VFish Creek Trail
p1303
sS'hike1189'
p1304
VKebler Pass / Irwin Lake
p1305
sS'hike1188'
p1306
VTelegraph - Carbon Junction Loop
p1307
sS'hike1183'
p1308
VKipling Trail
p1309
sS'hike1182'
p1310
VSwamp Canyon
p1311
sS'hike1181'
p1312
VColorado Trail (Wellington Lake Road to Long Gulch Trailhead)
p1313
sS'hike1180'
p1314
VAcorn Creek Trail 
p1315
sS'hike1187'
p1316
VHinman Creek Trail
p1317
sS'hike1186'
p1318
VDevil's Canyon 4x4 Road
p1319
sS'hike1185'
p1320
VTeocalli Ridge Loop Trail
p1321
sS'hike1184'
p1322
VLake Nanita Trail
p1323
sS'hike268'
p1324
VAndrews Glacier Trail
p1325
sS'hike269'
p1326
VSallie Barber Mine Trail
p1327
sS'hike264'
p1328
VBurro Trail
p1329
sS'hike265'
p1330
VHunter Valley Trail
p1331
sS'hike266'
p1332
VMount Elbert South Trail
p1333
sS'hike267'
p1334
VMad Creek Trail
p1335
sS'hike260'
p1336
VThree Mile Creek Trail
p1337
sS'hike261'
p1338
VHunts Lake Trail 
p1339
sS'hike262'
p1340
VEast Canyon Preservation Trail
p1341
sS'hike263'
p1342
VLower Cataract Loop Trail
p1343
sS'hike1231'
p1344
VLittle Vasquez Creek Trail
p1345
sS'hike1230'
p1346
VTwin Lakes
p1347
sS'hike1233'
p1348
VGoodwin Lakes
p1349
sS'hike1232'
p1350
VLeft Hand Reservoir Trail
p1351
sS'hike1235'
p1352
VFlat Top Mountain and Edge Lake Trail
p1353
sS'hike1234'
p1354
VKit Carson Mountain
p1355
sS'hike1237'
p1356
VLagerman Reservoir Trail
p1357
sS'hike1236'
p1358
VConejos Peak
p1359
sS'hike1239'
p1360
VDeKoevend Open Space Park
p1361
sS'hike1238'
p1362
VPicket Wire Canyonlands Trail
p1363
sS'hike398'
p1364
VLyons Overlook Trail
p1365
sS'hike399'
p1366
VHigh Dune Trail
p1367
sS'hike390'
p1368
VVallecito Creek Trail
p1369
sS'hike391'
p1370
VPinewood Lake Trail
p1371
sS'hike392'
p1372
VNight Bird Trail
p1373
sS'hike393'
p1374
VMeyers Ranch
p1375
sS'hike394'
p1376
VHighland Mary Lake Trail
p1377
sS'hike395'
p1378
VFox Run Park- Fallen Timbers Trail
p1379
sS'hike396'
p1380
VLost Man Trail
p1381
sS'hike397'
p1382
VAmpitheatre Trail
p1383
sS'hike50'
p1384
VGreen Mountain Loop
p1385
sS'hike51'
p1386
VChicago Lakes Trail
p1387
sS'hike52'
p1388
VLily Pad Lake Trail
p1389
sS'hike53'
p1390
VRainbow Lakes Trail
p1391
sS'hike54'
p1392
VDevils Thumb Pass and King Lake Trail
p1393
sS'hike55'
p1394
VIce Lake Basin Trail
p1395
sS'hike56'
p1396
VGoose Creek Trail
p1397
sS'hike57'
p1398
VMills Lake, Black Lake, Frozen Lake Trail
p1399
sS'hike58'
p1400
VTwin Sisters Peak Trail
p1401
sS'hike59'
p1402
VMallory Cave
p1403
sS'hike468'
p1404
VBaby Bathtubs Trail
p1405
sS'hike469'
p1406
VBluff Lake Nature Center
p1407
sS'hike462'
p1408
VLake Loop and Nature Trails
p1409
sS'hike463'
p1410
VWindsor Lake
p1411
sS'hike460'
p1412
VWigwam Trail 609
p1413
sS'hike461'
p1414
VEnchanted Mesa and McLintock Nature Trails
p1415
sS'hike466'
p1416
VGrouse Lake Trail
p1417
sS'hike467'
p1418
VMaroon Snowmass Trail
p1419
sS'hike464'
p1420
VLinkins Lake Trail
p1421
sS'hike465'
p1422
VBrush Creek
p1423
sS'hike642'
p1424
VMower Reservoir via Westminster Hill Trail
p1425
sS'hike643'
p1426
VBear Creek Greenbelt Lakewood Trail
p1427
sS'hike640'
p1428
VProspect Trail
p1429
sS'hike641'
p1430
VColorado Trail Segment 25
p1431
sS'hike646'
p1432
VUncompahgre Peak Trail
p1433
sS'hike647'
p1434
VSquare Top Mountain
p1435
sS'hike644'
p1436
VCoot Lake Trail
p1437
sS'hike645'
p1438
VLulu City Trail
p1439
sS'hike648'
p1440
VCoyote Valley Trail
p1441
sS'hike649'
p1442
VSneffels Highline Trail 
p1443
sS'hike138'
p1444
VMount Royal Trail
p1445
sS'hike139'
p1446
VHorseshoe Trail to Frazer Meadow
p1447
sS'hike484'
p1448
VBlanca Peak
p1449
sS'hike485'
p1450
VRock Park Loop Trail
p1451
sS'hike486'
p1452
VRim Rock Trail
p1453
sS'hike487'
p1454
VOverend Mountain Trail
p1455
sS'hike480'
p1456
VPine Valley Ranch Park: Pine Valley Ranch Loop Trail
p1457
sS'hike481'
p1458
VWillow Lake Trail
p1459
sS'hike482'
p1460
VMarshall Mesa Loop Trail
p1461
sS'hike483'
p1462
VWoodland Lake Trail to Skyscraper Reservoir
p1463
sS'hike488'
p1464
VDevil's Thumb Lake Trail
p1465
sS'hike489'
p1466
VWebster and Red Cone Pass Trail
p1467
sS'hike738'
p1468
VCopper Mountain Ski Resort Trail
p1469
sS'hike739'
p1470
VBowman's Shortcut Trail 
p1471
sS'hike736'
p1472
VHarper Lake
p1473
sS'hike737'
p1474
VWillow Creek Trail
p1475
sS'hike734'
p1476
VGrand Ditch Trail
p1477
sS'hike735'
p1478
VMount Carbon Loop
p1479
sS'hike732'
p1480
VHartman Rocks 
p1481
sS'hike733'
p1482
VDillon Pinnacles Trail
p1483
sS'hike730'
p1484
VOwl Perch / Lodge Pole Loop
p1485
sS'hike731'
p1486
VHildebrand Ranch
p1487
sS'hike1381'
p1488
VCastle Rock via Elbert Creek Trail
p1489
sS'hike1380'
p1490
VWheeler Monument Trail
p1491
sS'hike1383'
p1492
VSpring Creek 4x4 Trail
p1493
sS'hike1439'
p1494
VHancock Pass Alpine Tunnel 4x4 Road
p1495
sS'hike1382'
p1496
VDenver Botanic Gardens at Chatfield
p1497
sS'hike1433'
p1498
VBulwark Ridge Trail to Signal Mountain
p1499
sS'hike1385'
p1500
VGunnison Route Trail
p1501
sS'hike1431'
p1502
VBolam Pass via East Fork Trail
p1503
sS'hike1430'
p1504
VGranite and Divide Lakes
p1505
sS'hike1437'
p1506
VBent's Old Fort National Historic Site Trail
p1507
sS'hike1436'
p1508
VTruro Lake Trail
p1509
sS'hike1435'
p1510
VVega Reservoir Trail
p1511
sS'hike1384'
p1512
VCamp Lake Trail
p1513
sS'hike1387'
p1514
VCow Creek to McGregor Loop
p1515
sS'hike1386'
p1516
VIndependence Pass Overlook
p1517
sS'hike470'
p1518
VBerthoud Pass Trail
p1519
sS'hike127'
p1520
VWaldo Canyon Loop Trail [CLOSED]
p1521
sS'hike126'
p1522
VMount Falcon Park Upper Loop
p1523
sS'hike125'
p1524
VLair O' the Bear Trail
p1525
sS'hike124'
p1526
VCascade Falls
p1527
sS'hike123'
p1528
VUte Valley Park Loop Trail
p1529
sS'hike122'
p1530
VGrays Peak Trail
p1531
sS'hike121'
p1532
VDeer Mountain Trail
p1533
sS'hike120'
p1534
VBridal Veil Falls Trail
p1535
sS'hike892'
p1536
VDry Lakes Trail
p1537
sS'hike813'
p1538
VPeak-to-Peak Scenic Byway
p1539
sS'hike812'
p1540
VBreckenridge Peak 8 Trail
p1541
sS'hike811'
p1542
VCreekside Trail
p1543
sS'hike810'
p1544
VGreen Mountain Trail
p1545
sS'hike817'
p1546
VCub Lake
p1547
sS'hike816'
p1548
VCarter Lake Reservoir - Sundance Trail
p1549
sS'hike815'
p1550
VBalcony House Loop Trail
p1551
sS'hike814'
p1552
VGreen Mountain Trail
p1553
sS'hike819'
p1554
VBluebird / Ponderosa / Brother
p1555
sS'hike818'
p1556
VStorm Pass Trail
p1557
sS'hike890'
p1558
VTabor Creek Trail
p1559
sS'hike259'
p1560
VEast Inlet Trail to Lone Pine Lake
p1561
sS'hike258'
p1562
VBoulder Lake
p1563
sS'hike251'
p1564
VTimberline Lake Trail
p1565
sS'hike250'
p1566
VUpper Piney River Falls Trail
p1567
sS'hike253'
p1568
VBear Lake to Fern Lake Trailhead
p1569
sS'hike252'
p1570
VMount Muscoco Trail
p1571
sS'hike255'
p1572
VWheeler Lakes
p1573
sS'hike254'
p1574
VStanley Mountain Trail
p1575
sS'hike257'
p1576
VSilver Cascade Falls Trail
p1577
sS'hike256'
p1578
VMount Evans Scenic Byway
p1579
sS'hike929'
p1580
VWarren Gulch to Chief Mountain Trail
p1581
sS'hike928'
p1582
VWest Big Dry Creek Trail
p1583
sS'hike927'
p1584
VSaxon Mountain
p1585
sS'hike926'
p1586
VBunce School Road, Ironclads and Plane Crash 4x4 Trails
p1587
sS'hike925'
p1588
VCrater Lake
p1589
sS'hike924'
p1590
VHorseshoe Mountain
p1591
sS'hike923'
p1592
VLost Trail
p1593
sS'hike922'
p1594
VSpruce Tree House Trail
p1595
sS'hike921'
p1596
VParadise Cove Swimming Hole Trail
p1597
sS'hike920'
p1598
VSignal Butte Trail
p1599
sS'hike1244'
p1600
VTrappers Lake Trail
p1601
sS'hike1245'
p1602
VClark Peak Summit Trail
p1603
sS'hike1246'
p1604
VRock of Ages Trail to Wilson Peak
p1605
sS'hike1247'
p1606
VWoods  Lake via Wilson Mesa Trail
p1607
sS'hike1240'
p1608
VMount Victoria
p1609
sS'hike1241'
p1610
VTrail 403
p1611
sS'hike1242'
p1612
VPass Creek and Coal Creek Loop Trail
p1613
sS'hike1243'
p1614
VEllingwood Point
p1615
sS'hike1248'
p1616
VWest Snowmass Trail
p1617
sS'hike1249'
p1618
VFlume Canyon Trail
p1619
sS'hike895'
p1620
VBlack Forest
p1621
sS'hike49'
p1622
VCrater Lake Trail
p1623
sS'hike48'
p1624
VChief Mountain Trail
p1625
sS'hike47'
p1626
VSilver Dollar Lake Trail
p1627
sS'hike46'
p1628
VButler Gulch Trail
p1629
sS'hike45'
p1630
VLongs Peak Trail
p1631
sS'hike44'
p1632
VMount Cutler Trail
p1633
sS'hike43'
p1634
VSpruce Mountain Trail
p1635
sS'hike42'
p1636
VDakota Ridge and Red Rocks Trail Loop
p1637
sS'hike41'
p1638
VLake Gulch Trail
p1639
sS'hike40'
p1640
VThe Crags Trail
p1641
sS'hike101'
p1642
VHeart Lake via Rogers Pass Trail
p1643
sS'hike100'
p1644
VPikes Peak from the Crags Trail
p1645
sS'hike103'
p1646
VMaroon Bells-Snowmass Wilderness Loop
p1647
sS'hike102'
p1648
VHorsethief Falls Trail
p1649
sS'hike105'
p1650
VLake Haiyaha
p1651
sS'hike104'
p1652
VConundrum Creek Trail to Conundrum Hot Springs
p1653
sS'hike107'
p1654
VCeran Saint. Vrain Trail
p1655
sS'hike106'
p1656
VBierstadt Lake Loop Trail
p1657
sS'hike109'
p1658
VChautauqua Trail
p1659
sS'hike108'
p1660
VNorth Table Mountain Park
p1661
sS'hike1354'
p1662
VMesa County: Leon Peak
p1663
sS'hike749'
p1664
VShelf Road / Gold Belt Tour
p1665
sS'hike748'
p1666
VRedcloud and Sunshine Peaks
p1667
sS'hike743'
p1668
VHope Lake Trail
p1669
sS'hike742'
p1670
VEast Inlet Trail to Spirit Lake
p1671
sS'hike741'
p1672
VThe Ribbon Trail
p1673
sS'hike740'
p1674
VBrowns Creek Waterfall Trail
p1675
sS'hike747'
p1676
VElkhorn Creek Trail
p1677
sS'hike746'
p1678
VHaviland Lake Trail
p1679
sS'hike745'
p1680
VSkyline Drive
p1681
sS'hike744'
p1682
VBowen Gulch Trail
p1683
sS'hike1408'
p1684
VBlack Ridge Trail
p1685
sS'hike1409'
p1686
VSt. Vrain Greenway Trail
p1687
sS'hike1406'
p1688
VMcDonald Creek Canyon
p1689
sS'hike1407'
p1690
VTincup Pass 4x4 Road
p1691
sS'hike1404'
p1692
VSayres Gulch
p1693
sS'hike1405'
p1694
VBean Canyon Trail
p1695
sS'hike1402'
p1696
VMaggie Gulch Trail
p1697
sS'hike1403'
p1698
VDiamond Peaks
p1699
sS'hike1400'
p1700
VPerkins Central Garden Trail
p1701
sS'hike1401'
p1702
VSunshine Mountain East Ridge
p1703
sS'hike800'
p1704
VMary's Loop Trail
p1705
sS'hike801'
p1706
VMonument Valley Park Loop
p1707
sS'hike802'
p1708
VCraig Creek Trail
p1709
sS'hike803'
p1710
VCisneros Trail
p1711
sS'hike804'
p1712
VThe Keyhole and Longs Peak Trail
p1713
sS'hike805'
p1714
VHogback Ridge Trail
p1715
sS'hike806'
p1716
VPoint Lookout Trail
p1717
sS'hike807'
p1718
VBoulder Resevoir Loop Trail
p1719
sS'hike808'
p1720
VSteamboat Ski Resort Trail
p1721
sS'hike809'
p1722
VRoxborough Park Medley
p1723
sS'hike938'
p1724
VJenny Creek Trail to Yankee Doodle Lake
p1725
sS'hike939'
p1726
VMaroon-Snowmass Trail to Willow Lake
p1727
sS'hike934'
p1728
VWeaver Gulch [PRIVATE PROPERTY]
p1729
sS'hike935'
p1730
VOrmes Peak Trail
p1731
sS'hike936'
p1732
VBachelor Gulch Trail
p1733
sS'hike937'
p1734
VThe Copper Creek Trail
p1735
sS'hike930'
p1736
VGold Hill Trail
p1737
sS'hike931'
p1738
VSquirrel Creek
p1739
sS'hike932'
p1740
VHarriman Lake Trail
p1741
sS'hike933'
p1742
VNew York Mountain Trail
p1743
sS'hike1257'
p1744
VJurassic Trail
p1745
sS'hike1256'
p1746
VBottle Peak
p1747
sS'hike1255'
p1748
VThe Ridge
p1749
sS'hike1254'
p1750
VDry Creek Trail
p1751
sS'hike1253'
p1752
VThe Notch Trail
p1753
sS'hike1252'
p1754
VRed and Green Loop Trail
p1755
sS'hike1251'
p1756
VMeadow Creek Trail to Lily Pad Lake
p1757
sS'hike1250'
p1758
VRed Rocks Campground Loop
p1759
sS'hike1259'
p1760
VHidden Valley (Church Camp) Loop
p1761
sS'hike1258'
p1762
VChutes and Ladders
p1763
sS'hike38'
p1764
VBeaver Brook Trail
p1765
sS'hike39'
p1766
VRed Rocks Trading Post Trail
p1767
sS'hike32'
p1768
VHerman Gulch Trail
p1769
sS'hike33'
p1770
VBarr Trail to Pikes Peak
p1771
sS'hike30'
p1772
VAlberta Falls Trail
p1773
sS'hike31'
p1774
VQuandary Peak Trail
p1775
sS'hike36'
p1776
VLost Lake Trail
p1777
sS'hike37'
p1778
VChasm Lake
p1779
sS'hike34'
p1780
VLake Isabelle Trail
p1781
sS'hike35'
p1782
VBear Lake Nature Trail
p1783
sS'hike246'
p1784
VColumbine Lake Trail
p1785
sS'hike247'
p1786
VForest Lakes Trail
p1787
sS'hike244'
p1788
VRed Rocks Trail
p1789
sS'hike245'
p1790
VBluebird Lake Trail
p1791
sS'hike242'
p1792
VMount Massive Trail (via South East)
p1793
sS'hike243'
p1794
VAlluvial Fan Trail
p1795
sS'hike240'
p1796
VSandbeach Lake Trail
p1797
sS'hike241'
p1798
VWilliam's Canyon Trail
p1799
sS'hike248'
p1800
VZapata Falls Trail
p1801
sS'hike249'
p1802
VHallett Peak
p1803
sS'hike118'
p1804
VFlattop Mountain Trail
p1805
sS'hike119'
p1806
VBergen Peak and Elk Meadows Trail
p1807
sS'hike116'
p1808
VTimberline Falls Trail
p1809
sS'hike117'
p1810
VElk Meadow
p1811
sS'hike114'
p1812
VLoch Lomond
p1813
sS'hike115'
p1814
VNorth Cheyenne Columbine Trail
p1815
sS'hike112'
p1816
VMount Elbert South Trail Head
p1817
sS'hike113'
p1818
VBear Peak Canyon Loop Trail
p1819
sS'hike110'
p1820
VCarpenter Peak Trail
p1821
sS'hike111'
p1822
VInner Canyon Loop Trail
p1823
sS'hike758'
p1824
VNorth Fork Trail
p1825
sS'hike759'
p1826
VHigh Line Canal Trail: Waterton Canyon
p1827
sS'hike750'
p1828
VPeak 10 Trail
p1829
sS'hike751'
p1830
VCrosier Mountain Trail via Devil's Gulch Rd.
p1831
sS'hike752'
p1832
VColorado Trail
p1833
sS'hike753'
p1834
VLost Lake (Grand County)
p1835
sS'hike754'
p1836
VZimmerman Lake Trail
p1837
sS'hike755'
p1838
VHarmonica Arch Trail
p1839
sS'hike756'
p1840
VCreedmore Lakes Trail
p1841
sS'hike757'
p1842
VMount Sopris Trail
p1843
sS'hike1411'
p1844
VHogback Nature Loop Trail
p1845
sS'hike1410'
p1846
VPalmyra Peak: Roy Boy Couloir Trail
p1847
sS'hike1413'
p1848
VFirst Creek Cabin
p1849
sS'hike1412'
p1850
VDinosaur Quarry Trail
p1851
sS'hike1415'
p1852
VPurgatory 1990 World Championship Course Sampler
p1853
sS'hike1414'
p1854
VBlack Mountain (West Summit) Trail
p1855
sS'hike1417'
p1856
VBig Lake Trail
p1857
sS'hike1416'
p1858
VCoyote Run Loop Trail
p1859
sS'hike1419'
p1860
VDeadhorse Trail
p1861
sS'hike1418'
p1862
VAlpine Ridge Trail
p1863
sS'hike1082'
p1864
VBaldy Trail to Baldy Peak
p1865
sS'hike1083'
p1866
VMitchell Creek Canyon Trail
p1867
sS'hike1080'
p1868
VThree Lakes Trail
p1869
sS'hike1081'
p1870
VSouth Chicago Creek
p1871
sS'hike1086'
p1872
VHarpers Corner Trail
p1873
sS'hike1087'
p1874
VEast Plum Creek Trail
p1875
sS'hike1084'
p1876
VRace Track Trail
p1877
sS'hike1085'
p1878
VMount Nystrom Trail
p1879
sS'hike1088'
p1880
VHorsethief to the Crags Trail
p1881
sS'hike1089'
p1882
VSterns Lake and Rock Creek Farm
p1883
sS'hike839'
p1884
VBoy Scout Trail
p1885
sS'hike838'
p1886
VSpruce Canyon Trail
p1887
sS'hike835'
p1888
VRaleigh Peak
p1889
sS'hike834'
p1890
VBoulder Creek
p1891
sS'hike837'
p1892
VGourd Lake Trail
p1893
sS'hike836'
p1894
VCow Creek Trail
p1895
sS'hike831'
p1896
VBlackhawk Peak Trail
p1897
sS'hike830'
p1898
VThe Cadet Chapel at the U.S. Air Force Academy Trail
p1899
sS'hike833'
p1900
VWheeler Pass Trail
p1901
sS'hike832'
p1902
VClear Lake Trail
p1903
sS'hike1396'
p1904
VWaterton Canyon Indian Creek Mountain Bike Trail
p1905
sS'hike1397'
p1906
VCheyenne Rim Trail
p1907
sS'hike1394'
p1908
VMesa Top Loop Road
p1909
sS'hike1395'
p1910
VMesa Trail
p1911
sS'hike1392'
p1912
VFarming Terraces Trail
p1913
sS'hike1393'
p1914
VCross Mountain Trail
p1915
sS'hike1390'
p1916
VBroomfield & Louisville Loop Trail
p1917
sS'hike1391'
p1918
VMarmot Point Trail
p1919
sS'hike1398'
p1920
VSand Dunes Loop Trail
p1921
sS'hike1399'
p1922
VLoveland Pass Lake
p1923
sS'hike909'
p1924
VBaldwin Lakes Trail
p1925
sS'hike908'
p1926
VLincoln Mountain Loop
p1927
sS'hike1268'
p1928
VDoctors Park
p1929
sS'hike1269'
p1930
VRepublican Mountain
p1931
sS'hike1262'
p1932
VTabor/West/Bass Lakes
p1933
sS'hike1263'
p1934
VHistoric Ashcroft Boardwalk
p1935
sS'hike1260'
p1936
VPollock Trail
p1937
sS'hike1261'
p1938
VCorral Creek
p1939
sS'hike1266'
p1940
VLittle Beaver Creek Trail
p1941
sS'hike1267'
p1942
VLake Arbor Trail
p1943
sS'hike1264'
p1944
VReilly and Levsa Canyons
p1945
sS'hike1265'
p1946
VKannah Creek
p1947
sS'hike1068'
p1948
VTombstone Nature Loop Trail
p1949
sS'hike1069'
p1950
VNorth Vista Trail (Exclamation Point)
p1951
sS'hike1060'
p1952
VCap'n Jacks Trail to Jones Park and Bear Creek Trail
p1953
sS'hike1061'
p1954
VPyramid Peak Trail
p1955
sS'hike1062'
p1956
VRoaring Creek 
p1957
sS'hike1063'
p1958
VHighlands Ranch Trail
p1959
sS'hike1064'
p1960
VJames Peak Lake Trail
p1961
sS'hike1065'
p1962
VCheesman Ranch Trail
p1963
sS'hike1066'
p1964
VMount Columbia East Ridge Trail
p1965
sS'hike1067'
p1966
VSavage Lakes Trail
p1967
sS'hike349'
p1968
VHarvard Lakes Trail
p1969
sS'hike348'
p1970
VTanglewood Trail
p1971
sS'hike347'
p1972
VChief Ouray Mine Trail
p1973
sS'hike346'
p1974
VLakes of the Clouds
p1975
sS'hike345'
p1976
VNymph Lake Trail
p1977
sS'hike344'
p1978
VBuckhorn Loop (Captain Jack's Frontside) Trail
p1979
sS'hike343'
p1980
VPiedra River Trail
p1981
sS'hike342'
p1982
VBlue Lake Trail
p1983
sS'hike341'
p1984
VSmuggler Mountain Trail
p1985
sS'hike340'
p1986
VBurro Loop Trail
p1987
sS'hike29'
p1988
VMount Galbraith Trail
p1989
sS'hike28'
p1990
VCrater Lakes Trail
p1991
sS'hike21'
p1992
VSt. Mary's Glacier
p1993
sS'hike20'
p1994
VOuzel Falls Trail
p1995
sS'hike23'
p1996
VBear Peak Trail
p1997
sS'hike22'
p1998
VHorsetooth Falls and Horsetooth Rock Trail
p1999
sS'hike25'
p2000
VRed Rocks and Morrison Slide Trails
p2001
sS'hike24'
p2002
VMcCullough Gulch Trail 
p2003
sS'hike27'
p2004
VSky Pond Trail
p2005
sS'hike26'
p2006
VEldorado Canyon Trail
p2007
sS'hike233'
p2008
VPeaks Trail 
p2009
sS'hike232'
p2010
VArapaho Glacier Trail
p2011
sS'hike231'
p2012
VMount Evans and Mount Spalding Loop Trail
p2013
sS'hike230'
p2014
VRed Rocks Trail
p2015
sS'hike237'
p2016
VNewlin Creek Trail
p2017
sS'hike236'
p2018
VWaterdog Lakes Trail
p2019
sS'hike235'
p2020
VLegault Mountain Trail
p2021
sS'hike234'
p2022
VWatershed North Trail
p2023
sS'hike239'
p2024
VMount Audubon Trail
p2025
sS'hike238'
p2026
VJudd Falls Trail
p2027
sS'hike699'
p2028
VMirror Lake
p2029
sS'hike698'
p2030
VYankee Hill Road
p2031
sS'hike169'
p2032
VRaven's Roost and Oxen Draw Loop Trail
p2033
sS'hike168'
p2034
VPitkin Lake Trail
p2035
sS'hike128'
p2036
VBrainard Lake Trail
p2037
sS'hike163'
p2038
VIndependence Mountain Trail at Pence Park
p2039
sS'hike162'
p2040
VDawson Butte Ranch Open Space Trail
p2041
sS'hike693'
p2042
VCaribou Peak Trail
p2043
sS'hike692'
p2044
VWomens Forest Trail 375
p2045
sS'hike695'
p2046
VKings Lake Trail
p2047
sS'hike694'
p2048
VShrine Pass Road
p2049
sS'hike165'
p2050
VStaunton Ranch and Overlook Trail
p2051
sS'hike164'
p2052
VSouth Rim Loop Trail
p2053
sS'hike589'
p2054
VAurora Reservoir
p2055
sS'hike588'
p2056
VBrowns Pass Hartenstein Lake Trail
p2057
sS'hike585'
p2058
VMcIntosh Lake
p2059
sS'hike584'
p2060
VCrater Lake Trail
p2061
sS'hike587'
p2062
VTimber Lake Trail
p2063
sS'hike586'
p2064
VLittle Thompson Overlook Trail
p2065
sS'hike581'
p2066
VDome Mountain Trail
p2067
sS'hike580'
p2068
VEdna Mae Bennet Nature Trail
p2069
sS'hike583'
p2070
VMcGregor Ranch Trail
p2071
sS'hike582'
p2072
VLake Charles Trail
p2073
sS'hike765'
p2074
VFishhook Lake, Lost Lake, and Lake Elmo Trail
p2075
sS'hike764'
p2076
VBluffs Regional Park Loop
p2077
sS'hike767'
p2078
VLodgepole Loop Trail
p2079
sS'hike766'
p2080
VUpper Cataract Lake Trail
p2081
sS'hike761'
p2082
VSchool Pond and Preachers Hollow Loop Trail
p2083
sS'hike760'
p2084
VCastle, Meadow, and Tower Trails
p2085
sS'hike763'
p2086
VDavos Trail
p2087
sS'hike762'
p2088
VBingham Lake Pinery Reservoir Trail
p2089
sS'hike769'
p2090
VTerry Park at Clear Creek
p2091
sS'hike768'
p2092
VMillset Trail
p2093
sS'hike567'
p2094
VAgnes Vaille Falls [CLOSED]
p2095
sS'hike566'
p2096
VTreasure Falls Trail
p2097
sS'hike565'
p2098
VOutlook Ridge and Lost Pond Loop Trail
p2099
sS'hike564'
p2100
VLion Lake Trail
p2101
sS'hike563'
p2102
VFrench Pass Trail
p2103
sS'hike562'
p2104
VAiken Canyon Loop Trail
p2105
sS'hike561'
p2106
VSt. Vrain Mountain Trail
p2107
sS'hike560'
p2108
VCurecanti Creek Trail
p2109
sS'hike569'
p2110
VWillow Creek / Salmon Lake Trail
p2111
sS'hike568'
p2112
VKenosha Pass North
p2113
sS'hike1464'
p2114
VSage and Eagle Trail Loop
p2115
sS'hike1465'
p2116
VChautauqua-Bluebell-Baird Trails
p2117
sS'hike1466'
p2118
VCook Mountain Trail
p2119
sS'hike1467'
p2120
VHomestead Ranch Outer Loop
p2121
sS'hike1460'
p2122
VUncompahgre River
p2123
sS'hike1461'
p2124
VHomestead Trail
p2125
sS'hike1462'
p2126
VSouth Fork of Lake Creek
p2127
sS'hike1463'
p2128
VWhitney Lake Trail
p2129
sS'hike1468'
p2130
VPinion Flats Campground Trail
p2131
sS'hike1469'
p2132
VColorado Mines Peak Trail
p2133
sS'hike689'
p2134
VDavidson Mesa loop
p2135
sS'hike1095'
p2136
VMount Harvard Trail
p2137
sS'hike1094'
p2138
VBlack Canyon Trail
p2139
sS'hike1097'
p2140
VGray Back Peak Trail
p2141
sS'hike1096'
p2142
VLizard Head Trail
p2143
sS'hike1091'
p2144
VSignal Mountain Trail
p2145
sS'hike1090'
p2146
VMount Powell Summit Trail
p2147
sS'hike1093'
p2148
VColorado Trail (Long Gulch Trailhead to Kenosha Pass)
p2149
sS'hike1092'
p2150
VProspectors Trail
p2151
sS'hike1099'
p2152
VVenable Creek Trail
p2153
sS'hike1098'
p2154
VCherry Creek Spillway Trail
p2155
sS'hike1389'
p2156
VImogene Pass
p2157
sS'hike1388'
p2158
VPickle Gulch 4x4 Trail
p2159
sS'hike828'
p2160
VArgentine Pass 4x4 Road
p2161
sS'hike829'
p2162
VPine Creek Trail
p2163
sS'hike822'
p2164
VLittle Yellowstone
p2165
sS'hike823'
p2166
VDakan Road/ Long Hollow Road
p2167
sS'hike820'
p2168
VAmerican Lakes Trail
p2169
sS'hike821'
p2170
VIndiana Gulch Loop
p2171
sS'hike826'
p2172
VThe Brother and Sisters Loop
p2173
sS'hike827'
p2174
VMonument Trail
p2175
sS'hike824'
p2176
VWhite Rocks Section of the East Boulder Trail
p2177
sS'hike825'
p2178
VSleepy S Trail
p2179
sS'hike916'
p2180
VGlacier Creek Trail
p2181
sS'hike917'
p2182
VChatfield Wetlands
p2183
sS'hike914'
p2184
VButtermilk Mountain Trail
p2185
sS'hike915'
p2186
VBoulder Valley Ranch Sage and Eagle Loop Trail
p2187
sS'hike912'
p2188
VCathedral Lake to Electric Pass Trail
p2189
sS'hike913'
p2190
VOrchard Road to Belleview Avenue
p2191
sS'hike910'
p2192
VRock Island Trail
p2193
sS'hike911'
p2194
VMosquito Pass Trail
p2195
sS'hike918'
p2196
VLower Hunter Creek Trail
p2197
sS'hike919'
p2198
VOro Grande
p2199
sS'hike1279'
p2200
V5 Lake Loop
p2201
sS'hike1278'
p2202
VKnight Ridge Trail
p2203
sS'hike1275'
p2204
V18 Road System Trail
p2205
sS'hike1274'
p2206
VRed Cone Radical Hill &The Swan 4x4 Loop Trail
p2207
sS'hike1277'
p2208
VJasper Peak Summit Trail
p2209
sS'hike1276'
p2210
VPoughkeepsie Gulch Trail
p2211
sS'hike1271'
p2212
VVogel Canyon Trail
p2213
sS'hike1270'
p2214
VLittle Medano Creek Trail to Medano Lake
p2215
sS'hike1273'
p2216
VPrater Ridge Trail
p2217
sS'hike1272'
p2218
VHidden Valley Trail/Ski Area
p2219
sS'hike1079'
p2220
VCinammon Pass Trail
p2221
sS'hike1078'
p2222
VLand's End Road Grand Mesa Loop
p2223
sS'hike1073'
p2224
VStarvation Creek Trail
p2225
sS'hike1072'
p2226
VTrue Romance Mine
p2227
sS'hike1071'
p2228
VOuray Hot Springs
p2229
sS'hike1070'
p2230
VHomestead Trail 
p2231
sS'hike1077'
p2232
VBakerville/Loveland Trail
p2233
sS'hike1076'
p2234
VGreyrock Summit via Seaman Reservoir 
p2235
sS'hike1075'
p2236
VCoke Ovens Trail
p2237
sS'hike1074'
p2238
VWinding Stairs Trail
p2239
sS'hike358'
p2240
VHeizer Trail
p2241
sS'hike359'
p2242
VPoudre River Trail
p2243
sS'hike354'
p2244
VNorth Fork of Crystal River Loop to Snowmass Lake
p2245
sS'hike355'
p2246
VValley Loop Trail
p2247
sS'hike356'
p2248
VCliff Palace Loop Trail
p2249
sS'hike357'
p2250
VPikes Peak Highway: Cascade to the Summit of Pikes Peak
p2251
sS'hike350'
p2252
VOuray Perimeter Trail
p2253
sS'hike351'
p2254
VHewlett Gulch Trail
p2255
sS'hike352'
p2256
VHuron Peak Trail
p2257
sS'hike353'
p2258
VMount Flora Trail
p2259
sS'hike14'
p2260
VGem Lake Trail
p2261
sS'hike15'
p2262
VBooth Falls Trail
p2263
sS'hike16'
p2264
VSt. Mary's Falls Trail
p2265
sS'hike17'
p2266
VRed Rock Canyon Trails
p2267
sS'hike10'
p2268
VSeven Bridges Trail
p2269
sS'hike11'
p2270
VDevil's Head Lookout Trail to Fire Tower
p2271
sS'hike12'
p2272
VDiamond Lake Trail
p2273
sS'hike13'
p2274
VFirst and Second Flatiron Hike
p2275
sS'hike18'
p2276
VApex Park Enchanted Forest Trail
p2277
sS'hike19'
p2278
VAlderfer Three Sisters Trail
p2279
sS'hike220'
p2280
VSecond Creek Trail
p2281
sS'hike221'
p2282
VMayhem Gulch  Juniper Loop Trail
p2283
sS'hike222'
p2284
VCathedral Lake Trail
p2285
sS'hike223'
p2286
VGrizzly Creek Trail
p2287
sS'hike224'
p2288
VSouth Valley Park Trail
p2289
sS'hike225'
p2290
VPawnee Pass Trail
p2291
sS'hike226'
p2292
VLily Lake
p2293
sS'hike227'
p2294
VSouth Boulder Creek Trail
p2295
sS'hike228'
p2296
VGolden Gate Canyon Loop
p2297
sS'hike229'
p2298
VSouth Park 600 to Square Top Lakes
p2299
sS'hike178'
p2300
VJasper Lake Trail
p2301
sS'hike179'
p2302
VGregory Canyon Trail
p2303
sS'hike170'
p2304
VMount Morrison East Face Trail
p2305
sS'hike171'
p2306
VPtarmigan Lake Trail
p2307
sS'hike172'
p2308
VFlatirons Vista Trail
p2309
sS'hike173'
p2310
VMonarch Lake Loop Trail
p2311
sS'hike174'
p2312
VMayflower Gulch Grand Traverse
p2313
sS'hike175'
p2314
VNorth Mount Elbert Trail
p2315
sS'hike176'
p2316
VGore Creek Trail
p2317
sS'hike177'
p2318
VBoulder Falls Trail
p2319
sS'hike598'
p2320
VWilder Gulch Trail
p2321
sS'hike599'
p2322
VChallenge Hill Blue Loop Trail
p2323
sS'hike592'
p2324
VHermosa Creek Trail
p2325
sS'hike593'
p2326
VNever Summer Wilderness Trails
p2327
sS'hike590'
p2328
VCheesman Park and Seventh Avenue
p2329
sS'hike591'
p2330
VSouth Colony Lakes Trail
p2331
sS'hike596'
p2332
VSaint Peter's Dome Trail
p2333
sS'hike597'
p2334
VCoal Creek Trail - Louisville to Lafayette
p2335
sS'hike594'
p2336
VMount Belford
p2337
sS'hike595'
p2338
VNarrow Gauge and North Fork View Loop
p2339
sS'hike772'
p2340
VBig South Trail
p2341
sS'hike773'
p2342
VGreen Mountain Open Space
p2343
sS'hike770'
p2344
VFinch Lake and Pear Reservoir Trail
p2345
sS'hike771'
p2346
VPlatte Canyon Trail
p2347
sS'hike776'
p2348
VBeaver Meadows Trail
p2349
sS'hike777'
p2350
VWest Branch Trail
p2351
sS'hike774'
p2352
VCalifornia Gulch Trail
p2353
sS'hike775'
p2354
VThe Colorado Trail
p2355
sS'hike778'
p2356
VLime Mesa
p2357
sS'hike779'
p2358
VPainted Wall View Trail
p2359
sS'hike574'
p2360
VSand Creek Greenway Trail
p2361
sS'hike575'
p2362
VHassell Lake
p2363
sS'hike576'
p2364
VLonesome Lake Trail
p2365
sS'hike577'
p2366
VPole Hill
p2367
sS'hike570'
p2368
VHahns Peak Trail 
p2369
sS'hike571'
p2370
VBuck Gulch Trail Loop
p2371
sS'hike572'
p2372
VLiberty Cap Trail
p2373
sS'hike573'
p2374
VColton Road to the High Plains Trail
p2375
sS'hike578'
p2376
VSouth Zapata Lake Trail
p2377
sS'hike579'
p2378
VEngineer Pass Road
p2379
sS'hike686'
p2380
VWalden Ponds Wildlife Habitat Trail
p2381
sS'hike687'
p2382
VAlpine Tunnel Trail
p2383
sS'hike684'
p2384
VPaulie's Plunge Trail
p2385
sS'hike685'
p2386
VTwin Owls Loop
p2387
sS'hike682'
p2388
VForest Canyon Overlook
p2389
sS'hike683'
p2390
VBaker's Tank
p2391
sS'hike680'
p2392
VCommunity Ditch Trail
p2393
sS'hike681'
p2394
VTimber Trail
p2395
sS'hike985'
p2396
VDonner Pass and Lookout Mountain
p2397
sS'hike688'
p2398
VMesa Lakes Trail
p2399
sS'hike984'
p2400
VRedcloud Peak
p2401
sS'hike989'
p2402
VLower Loop Trail
p2403
sS'hike324'
p2404
VGore Range Trail
p2405
sS'hike1432'
p2406
VJane's Run Trail
p2407
sS'hike1477'
p2408
VYampa Bench Road
p2409
sS'hike1476'
p2410
VArthur's Rock to Howard Trail Loop
p2411
sS'hike1475'
p2412
VNo Name Lake
p2413
sS'hike1474'
p2414
VAlamosa National Wildlife Refuge River Road Trail
p2415
sS'hike1473'
p2416
VNorth Clear Creek Falls Loop
p2417
sS'hike1472'
p2418
VCoal Canyon Trail
p2419
sS'hike1471'
p2420
VBlack Mountain Trail
p2421
sS'hike1470'
p2422
VAspen Alley Trail Loop
p2423
sS'hike1479'
p2424
VShooks Run Trail
p2425
sS'hike1478'
p2426
VBible Point
p2427
sS'hike963'
p2428
VCommunity Ditch Trail
p2429
sS'hike962'
p2430
VWest White Pine Mountain 4x4 Trail
p2431
sS'hike961'
p2432
VTenderfoot Hill Trails
p2433
sS'hike960'
p2434
VCross Creek Trail to Surprise Lake
p2435
sS'hike967'
p2436
VRingtail Trail
p2437
sS'hike966'
p2438
VSharkstooth Pass Trail
p2439
sS'hike965'
p2440
VCaribou 4x4 Road
p2441
sS'hike964'
p2442
VMolas Lake To Amimas River
p2443
sS'hike969'
p2444
VLily Lake
p2445
sS'hike968'
p2446
VCastle Peak
p2447
sS'hike1280'
p2448
VLon Hagler Reservoir Trail
p2449
sS'hike1281'
p2450
VLeyden Creek Trail
p2451
sS'hike1282'
p2452
VCascade Creek 4x4 Road
p2453
sS'hike1283'
p2454
VRocky Fork Trail
p2455
sS'hike1284'
p2456
VGalloping Goose
p2457
sS'hike1285'
p2458
VBeaver Ponds Boardwalk
p2459
sS'hike1286'
p2460
VLower Barr Trail to Eagle's Nest
p2461
sS'hike1287'
p2462
VTrout Creek Trail
p2463
sS'hike1288'
p2464
VMichigan Ditch Trail to Lake Agnes
p2465
sS'hike1289'
p2466
VBlackmer Loop Trail
p2467
sS'hike1048'
p2468
VQuincy Reservoir
p2469
sS'hike1049'
p2470
VSlide Lake Trail 
p2471
sS'hike1046'
p2472
VCattail Flats Trail
p2473
sS'hike1047'
p2474
VSt. Charles Peak 
p2475
sS'hike1044'
p2476
VBrowns Cabin Trail
p2477
sS'hike1045'
p2478
VNorth Maroon Peak
p2479
sS'hike1042'
p2480
VLost Man Reservoir Trail
p2481
sS'hike1043'
p2482
VFirst Fork Trail
p2483
sS'hike1040'
p2484
VHancock Lake Trail
p2485
sS'hike1041'
p2486
VPueblo Reservoir and Greenway Trail
p2487
sS'hike369'
p2488
VDome Rock Trail
p2489
sS'hike368'
p2490
VJones Pass
p2491
sS'hike361'
p2492
VRed Mountain
p2493
sS'hike360'
p2494
VBrowns Creek and Little Browns Creek Trail
p2495
sS'hike363'
p2496
VBridal Veil Falls Via Lumpy Ridge Trails
p2497
sS'hike362'
p2498
VSpring Creek Trail
p2499
sS'hike365'
p2500
VMeyers Homestead Trail
p2501
sS'hike364'
p2502
VLower Cascade Falls Trail
p2503
sS'hike367'
p2504
VPick N Sledge Grubstake Loop Trail
p2505
sS'hike366'
p2506
VDevils Canyon Loop Trail
p2507
sS'hike219'
p2508
VAdams Falls Trail
p2509
sS'hike218'
p2510
VAnimas Mountain Trail
p2511
sS'hike215'
p2512
VFlagstaff Road Trail
p2513
sS'hike214'
p2514
VMeyer Ranch Park Trail
p2515
sS'hike217'
p2516
VBlue Lakes Trail
p2517
sS'hike216'
p2518
VSpud Lake
p2519
sS'hike211'
p2520
VRampart Reservoir Trail
p2521
sS'hike210'
p2522
VBear Creek Trail
p2523
sS'hike213'
p2524
VSugarloaf Mountain Trail
p2525
sS'hike212'
p2526
VHall Ranch, Bitterbrush and Nelson Loop Trail 
p2527
sS'hike789'
p2528
VMusic Pass Trail
p2529
sS'hike788'
p2530
VSaint Vrain Mountain Trail
p2531
sS'hike787'
p2532
VChicago Basin 14er Circuit: Windom Peak Summit Trail -  Sunlight Peak - Mount Eolus
p2533
sS'hike786'
p2534
VSwitzerland Trail
p2535
sS'hike785'
p2536
VMount Goliath Natural Area
p2537
sS'hike784'
p2538
VWeller Lake Trail
p2539
sS'hike783'
p2540
VMummy Pass Trail (#937)
p2541
sS'hike782'
p2542
VOak Flat Loop Trail
p2543
sS'hike781'
p2544
VPlatte River Trail
p2545
sS'hike780'
p2546
VWest Magnolia Road
p2547
sS'hike541'
p2548
VPineridge Trail
p2549
sS'hike540'
p2550
VPurgatory Trail 
p2551
sS'hike543'
p2552
VEagle Lake Trail
p2553
sS'hike542'
p2554
VBishop's Castle
p2555
sS'hike545'
p2556
VHidden Mesa Trail
p2557
sS'hike544'
p2558
VDominguez Canyon
p2559
sS'hike547'
p2560
VCrestone Needle Trail
p2561
sS'hike546'
p2562
VDillon Reservoir Loop
p2563
sS'hike549'
p2564
VCrystal Lake Trail
p2565
sS'hike548'
p2566
VRustler Gulch
p2567
sS'hike145'
p2568
VBlack Lake Trail
p2569
sS'hike144'
p2570
VRound Mountain Nature and Summit Trails
p2571
sS'hike147'
p2572
VSprague Lake Trail
p2573
sS'hike146'
p2574
VPanorama Point Trail
p2575
sS'hike141'
p2576
VHessie Trail
p2577
sS'hike140'
p2578
VAllenspark Trail to Calypso Cascades
p2579
sS'hike143'
p2580
VMissouri Lakes Trail
p2581
sS'hike142'
p2582
VPancake Rocks and Horsethief Falls Trail
p2583
sS'hike149'
p2584
VMaroon Peak Trail
p2585
sS'hike148'
p2586
VMount Sherman Trail
p2587
sS'hike1448'
p2588
VEagle's View Trail Loop
p2589
sS'hike1449'
p2590
VWellington Ditch Trail
p2591
sS'hike1442'
p2592
VDinosaur Hill Trail
p2593
sS'hike1443'
p2594
VPoage Lake
p2595
sS'hike1440'
p2596
VElkhead Pass
p2597
sS'hike1441'
p2598
VCherry Creek Natural Area
p2599
sS'hike1446'
p2600
VBald Mountain
p2601
sS'hike1447'
p2602
VGates of Lodore Nature Trail
p2603
sS'hike1444'
p2604
VBadger House Community Trail
p2605
sS'hike1445'
p2606
VNeedle Rock
p2607
sS'hike970'
p2608
VMaverick and Sawmill Trails
p2609
sS'hike971'
p2610
VEagle / Sage Loop
p2611
sS'hike972'
p2612
VAvalanche Creek Trail
p2613
sS'hike973'
p2614
VMill Creek Basin Trail
p2615
sS'hike974'
p2616
VBlack Bear Trail
p2617
sS'hike975'
p2618
VSunnyside Trail
p2619
sS'hike976'
p2620
VPass Creek Trail
p2621
sS'hike977'
p2622
VSoda Canyon Overlook Trail
p2623
sS'hike978'
p2624
VRed Lake Trail
p2625
sS'hike979'
p2626
VGlenwood Canyon Trail 
p2627
sS'hike891'
p2628
VTriple Bar and OT Trail Loop
p2629
sS'hike1293'
p2630
VSiena Reservoir Trail
p2631
sS'hike1292'
p2632
VBig Thompson River Walk to Lake Estes
p2633
sS'hike1291'
p2634
VSalt Creek Trail (#618)
p2635
sS'hike1290'
p2636
VDauntless Mine Trail
p2637
sS'hike1297'
p2638
VKokopelli Trail / Troy Built Trail
p2639
sS'hike1296'
p2640
VNorth Star Mountain Trails
p2641
sS'hike1295'
p2642
VTwin Crater Lakes via Rawah Trail
p2643
sS'hike1294'
p2644
VAndy's Loop Trail
p2645
sS'hike897'
p2646
VBig Meadows Trail
p2647
sS'hike1299'
p2648
VAlberta Peak: Continental Divide National Scenic Trail
p2649
sS'hike1298'
p2650
VBlue Dot Trail
p2651
sS'hike896'
p2652
VTabuache Trail
p2653
sS'hike1051'
p2654
VHorsethief Bench Trail
p2655
sS'hike1050'
p2656
VPikes Peak Greenway Trail
p2657
sS'hike1053'
p2658
VWild Turkey Trail
p2659
sS'hike1052'
p2660
VHighline Trail
p2661
sS'hike1055'
p2662
VStultz Trail
p2663
sS'hike1054'
p2664
VWriter Vista Park Trail
p2665
sS'hike1057'
p2666
VNeversink Trail
p2667
sS'hike1056'
p2668
VLake Eileen Trail
p2669
sS'hike1059'
p2670
VTen Mile Peak to Peak (Tenmile Range Traverse)
p2671
sS'hike1058'
p2672
VSylvan Lake
p2673
sS'hike894'
p2674
V4th of July Road
p2675
sS'hike208'
p2676
VWhite Ranch Loop
p2677
sS'hike209'
p2678
VO'Fallon Park Upper Loop Trail
p2679
sS'hike202'
p2680
VPikes Peak from Devils Playground
p2681
sS'hike203'
p2682
VMount Morrison Trail
p2683
sS'hike200'
p2684
VCrystal Lake Trail
p2685
sS'hike201'
p2686
VShadow Canyon Trail to South Boulder Peak
p2687
sS'hike206'
p2688
VSiamese Twins Loop Trail
p2689
sS'hike207'
p2690
VTenderfoot Mountain
p2691
sS'hike204'
p2692
VFourth of July Mine Trail
p2693
sS'hike205'
p2694
VForgotten Valley
p2695
sS'hike376'
p2696
VJud Wiebe Memorial Trail
p2697
sS'hike377'
p2698
VTenderfoot Trail
p2699
sS'hike374'
p2700
VRed Hill/Mushroom Rock trail
p2701
sS'hike375'
p2702
VFish Creek to Long Lake
p2703
sS'hike372'
p2704
VCherry Creek Trail
p2705
sS'hike373'
p2706
VRocky Mountain Arsenal National Wildlife Refuge Lakes Loop
p2707
sS'hike370'
p2708
VLong Lake Trail
p2709
sS'hike371'
p2710
VBelcher Hill
p2711
sS'hike378'
p2712
VWillow Lakes Trail
p2713
sS'hike379'
p2714
VEvergreen Lake Trail
p2715
sS'hike798'
p2716
VRock Canyon Broken Hip Loop Trail
p2717
sS'hike799'
p2718
VLower Sand Creek Lake Trail
p2719
sS'hike794'
p2720
VDiscovery Challenger Trail
p2721
sS'hike795'
p2722
VOtto's Trail
p2723
sS'hike796'
p2724
VHoly Cross City Trail
p2725
sS'hike797'
p2726
VNolan Lake Trail
p2727
sS'hike790'
p2728
VJean Lunning Trail
p2729
sS'hike791'
p2730
VUte and Range View Trails
p2731
sS'hike792'
p2732
VLong Scraggy Peak
p2733
sS'hike793'
p2734
VArapaho Pass Trail
p2735
sS'hike558'
p2736
VSourdough Trail
p2737
sS'hike559'
p2738
VColorado Trail from Kenosha Pass to Georgia Pass
p2739
sS'hike556'
p2740
VSlaughterhouse Gulch Trail
p2741
sS'hike557'
p2742
VBear Lake via Horn Fork Trail
p2743
sS'hike554'
p2744
VCastlewood Canyon State Park Loop Trail
p2745
sS'hike555'
p2746
VWarner Point Nature Trail
p2747
sS'hike552'
p2748
VPetrified Forest Loop and Ponderosa Loop Trails
p2749
sS'hike553'
p2750
VLookout Mountain Trail
p2751
sS'hike550'
p2752
VChinns Lake Trail
p2753
sS'hike551'
p2754
VBeaver Trail 
p2755
sS'hike152'
p2756
VMount of the Holy Cross Trail
p2757
sS'hike153'
p2758
VEagles Peak Trail
p2759
sS'hike150'
p2760
VDevils Playground from the Crags
p2761
sS'hike151'
p2762
VRawhide Wrangler Trail
p2763
sS'hike156'
p2764
VLookout Mountain Trail
p2765
sS'hike157'
p2766
VSusan G. Bretag Trail and Palmer Trail Loop
p2767
sS'hike154'
p2768
VNorth Ten Mile Creek Trail
p2769
sS'hike155'
p2770
VGlacier Gorge
p2771
sS'hike158'
p2772
VSouth Table Mountain Trail
p2773
sS'hike159'
p2774
VHogback Ridge Summit Trail
p2775
sS'hike1459'
p2776
VPlug Hat Trail
p2777
sS'hike1458'
p2778
VMiller Fork, Signal Mountain, and Donner Pass Loop Trail
p2779
sS'hike1455'
p2780
VEnglewood Ride
p2781
sS'hike1454'
p2782
VDead Dog Trail
p2783
sS'hike1457'
p2784
VZook Loop
p2785
sS'hike1456'
p2786
VAntelope and Bitterbrush Trails
p2787
sS'hike1451'
p2788
VGreen Mountain Summit Via North Vista Trail
p2789
sS'hike1450'
p2790
VCoulton Creek Trail
p2791
sS'hike1453'
p2792
VJohnny Bull Trail
p2793
sS'hike1452'
p2794
VBluestem Loop Trail
p2795
sS'hike303'
p2796
VPaint Mines Trail
p2797
sS'hike302'
p2798
VRidgeline Open Space
p2799
sS'hike301'
p2800
VKing Lake Trail
p2801
sS'hike300'
p2802
VIsabelle Glacier Trail
p2803
sS'hike307'
p2804
VMeadow Creek Trail to Eccles Pass
p2805
sS'hike306'
p2806
VLake Helene Trail
p2807
sS'hike305'
p2808
VHIdden Mesa Trail
p2809
sS'hike304'
p2810
VGross North Shore Trail
p2811
sS'hike8'
p2812
VMohawk Lakes Trail
p2813
sS'hike308'
p2814
VCrosier Mountain Trail
p2815
sS'hike134'
p2816
VArapahoe Pass and Lake Dorothy Trail
p2817
sS'hike135'
p2818
VBear Creek Lake Trail Loop
p2819
sS'hike136'
p2820
VMount Galbraith Loop
p2821
sS'hike137'
p2822
VRainbow Gulch
p2823
sS'hike130'
p2824
VBeaver Lake Trail
p2825
sS'hike131'
p2826
VGreen Mountain West Trail
p2827
sS'hike132'
p2828
VButton Rock Preserve: Sleepy Lion Trail
p2829
sS'hike133'
p2830
VFowler Trail
p2831
sS'hike1110'
p2832
VPrairie Vista Trail
p2833
sS'hike1111'
p2834
VLamphier Lake
p2835
sS'hike1112'
p2836
VPhil's World Mountain Bike Trail
p2837
sS'hike1113'
p2838
VGrand Mesa Scenic Byway
p2839
sS'hike1114'
p2840
VBoreas Pass Road Trail
p2841
sS'hike1115'
p2842
VAllie's Way
p2843
sS'hike1116'
p2844
VN Halfmoon Mt. Massive Trail
p2845
sS'hike1117'
p2846
VMeadow Loop and Ridge Trail
p2847
sS'hike1118'
p2848
VFredonia Gulch Trail
p2849
sS'hike1119'
p2850
VPerham Creek Trail
p2851
sS'hike949'
p2852
VRough Canyon Trail
p2853
sS'hike948'
p2854
VHike to Granite Falls
p2855
sS'hike945'
p2856
VWest Lake Creek Trail
p2857
sS'hike944'
p2858
VGrizzly Lake
p2859
sS'hike947'
p2860
VGore Canyon Trail
p2861
sS'hike946'
p2862
VColumbine Open Space
p2863
sS'hike941'
p2864
VGreenbelt Plateau Trail
p2865
sS'hike940'
p2866
VSnowslide Trail
p2867
sS'hike943'
p2868
VMount Silverheels
p2869
sS'hike942'
p2870
VBreckenridge Peak Trail
p2871
sS'hike1024'
p2872
VSouth Boulder Creek: Lower Big Bluestem Trail to Mesa Trail
p2873
sS'hike1025'
p2874
VWilson Peak Via Navajo Basin
p2875
sS'hike1026'
p2876
VStormy Peaks Trail
p2877
sS'hike1027'
p2878
VMeridian Lake Loop Trail
p2879
sS'hike1020'
p2880
VLake Evelyn Trail
p2881
sS'hike1021'
p2882
VLake Como Trail
p2883
sS'hike1022'
p2884
VNorth Trail
p2885
sS'hike1023'
p2886
VDry Fork Loop
p2887
sS'hike1028'
p2888
VLady Moon Trail
p2889
sS'hike1029'
p2890
VSouth Crestone Lake Trail
p2891
sS'hike1338'
p2892
Vbluff's loop
p2893
sS'hike1339'
p2894
VThe North Fork of Clear Creek
p2895
sS'hike899'
p2896
VCub Creek Loop
p2897
sS'hike898'
p2898
VFooses Creek Trail
p2899
sS'hike893'
p2900
VColorado Mines Peak and Blue Lake Trail
p2901
sS'hike1331'
p2902
VTurkey Flats Loop Trail
p2903
sS'hike1332'
p2904
VWaterdog Lake Trail
p2905
sS'hike1333'
p2906
VHighland Mary Trail Loop
p2907
sS'hike1334'
p2908
VCastle Rock
p2909
sS'hike1335'
p2910
VRed Mountain via Grand Ditch Trail
p2911
sS'hike1336'
p2912
VFar View Sites Complex
p2913
sS'hike1337'
p2914
VHoward Trail
p2915
sS'hike419'
p2916
VBible Park Trails
p2917
sS'hike418'
p2918
VCascade Creek Trail
p2919
sS'hike417'
p2920
VEast Maroon Trail
p2921
sS'hike416'
p2922
VRed Rocks of Woodland Park
p2923
sS'hike415'
p2924
VSanta Fe Regional Trail
p2925
sS'hike414'
p2926
VChasm Falls Trail via Old Fall River Road
p2927
sS'hike413'
p2928
VDevil's Backbone Trail - Extended Route
p2929
sS'hike412'
p2930
VCoyote and Squirrel Loop Trails
p2931
sS'hike411'
p2932
VLovell Gulch Trail
p2933
sS'hike410'
p2934
VNotch Mountain
p2935
sS'hike2'
p2936
VBeaver Brook /Chavez Trail Loop
p2937
sS'hike3'
p2938
VThe Incline Trail
p2939
sS'hike0'
p2940
VMaxwell Falls Lower Trail
p2941
sS'hike1'
p2942
VRoyal Arch Trail
p2943
sS'hike6'
p2944
VMount Falcon Castle Trail
p2945
sS'hike7'
p2946
VMount Sanitas Trail
p2947
sS'hike4'
p2948
VEmerald Lake Trail
p2949
sS'hike5'
p2950
VHanging Lake Trail 
p2951
sS'hike309'
p2952
VWest Maroon Trail
p2953
sS'hike9'
p2954
VMount Bierstadt Trail
p2955
sS'hike529'
p2956
VLory State Park Loop Trail
p2957
sS'hike528'
p2958
VEast Inlet Trail to Lake Verna
p2959
sS'hike523'
p2960
VBlack Bear Trail to Ralston Roost
p2961
sS'hike522'
p2962
VEngineer Mountain Trail
p2963
sS'hike521'
p2964
VWatrous Gulch Trail
p2965
sS'hike520'
p2966
VCucumber Gulch 
p2967
sS'hike527'
p2968
VBuckskin Pass Trail to Snowmass Lake
p2969
sS'hike526'
p2970
VMount Evans Resthouse Trail
p2971
sS'hike525'
p2972
VBalanced Rock Trail
p2973
sS'hike524'
p2974
VBear Creek Trail
p2975
s.