(dp1
S'hike425'
p2
VCross Creek Trail
p3
sS'hike369'
p4
VDome Rock Trail
p5
sS'hike368'
p6
VJones Pass
p7
sS'hike295'
p8
VBobolink Trail
p9
sS'hike294'
p10
VCopeland Falls to Calypso Cascades
p11
sS'hike297'
p12
VThe Grottos Trail
p13
sS'hike296'
p14
VOuzel Lake Trail
p15
sS'hike291'
p16
VBen Tyler Trail
p17
sS'hike290'
p18
VBergen Peak Trail
p19
sS'hike293'
p20
VMt. Esther Trail
p21
sS'hike292'
p22
VEcho Lake Trail
p23
sS'hike354'
p24
VNorth Fork of Crystal River Loop to Snowmass Lake
p25
sS'hike355'
p26
VValley Loop Trail
p27
sS'hike356'
p28
VCliff Palace Loop Trail
p29
sS'hike357'
p30
VPikes Peak Highway: Cascade to the Summit of Pikes Peak
p31
sS'hike299'
p32
VCherry Creek Reservoir Loop Trail
p33
sS'hike298'
p34
VDunes Trail from Pinyon Flats
p35
sS'hike352'
p36
VHuron Peak Trail
p37
sS'hike353'
p38
VMount Flora Trail
p39
sS'hike14'
p40
VGem Lake Trail
p41
sS'hike15'
p42
VBooth Falls Trail
p43
sS'hike16'
p44
VSt. Mary's Falls Trail
p45
sS'hike17'
p46
VRed Rock Canyon Trails
p47
sS'hike10'
p48
VSeven Bridges Trail
p49
sS'hike11'
p50
VDevil's Head Lookout Trail to Fire Tower
p51
sS'hike12'
p52
VDiamond Lake Trail
p53
sS'hike13'
p54
VFirst and Second Flatiron Hike
p55
sS'hike18'
p56
VApex Park Enchanted Forest Trail
p57
sS'hike19'
p58
VAlderfer Three Sisters Trail
p59
sS'hike220'
p60
VSecond Creek Trail
p61
sS'hike221'
p62
VMayhem Gulch  Juniper Loop Trail
p63
sS'hike222'
p64
VCathedral Lake Trail
p65
sS'hike223'
p66
VGrizzly Creek Trail
p67
sS'hike224'
p68
VSouth Valley Park Trail
p69
sS'hike225'
p70
VPawnee Pass Trail
p71
sS'hike226'
p72
VLily Lake
p73
sS'hike227'
p74
VSouth Boulder Creek Trail
p75
sS'hike228'
p76
VGolden Gate Canyon Loop
p77
sS'hike229'
p78
VSouth Park 600 to Square Top Lakes
p79
sS'hike363'
p80
VBridal Veil Falls Via Lumpy Ridge Trails
p81
sS'hike178'
p82
VJasper Lake Trail
p83
sS'hike179'
p84
VGregory Canyon Trail
p85
sS'hike362'
p86
VSpring Creek Trail
p87
sS'hike170'
p88
VMount Morrison East Face Trail
p89
sS'hike171'
p90
VPtarmigan Lake Trail
p91
sS'hike172'
p92
VFlatirons Vista Trail
p93
sS'hike173'
p94
VMonarch Lake Loop Trail
p95
sS'hike174'
p96
VMayflower Gulch Grand Traverse
p97
sS'hike175'
p98
VNorth Mount Elbert Trail
p99
sS'hike176'
p100
VGore Creek Trail
p101
sS'hike177'
p102
VBoulder Falls Trail
p103
sS'hike329'
p104
VQueens Canyon Trail [CLOSED]
p105
sS'hike328'
p106
VMount Princeton Trail
p107
sS'hike323'
p108
VHagerman Tunnel Trail
p109
sS'hike249'
p110
VHallett Peak
p111
sS'hike259'
p112
VEast Inlet Trail to Lone Pine Lake
p113
sS'hike258'
p114
VBoulder Lake
p115
sS'hike251'
p116
VTimberline Lake Trail
p117
sS'hike250'
p118
VUpper Piney River Falls Trail
p119
sS'hike253'
p120
VBear Lake to Fern Lake Trailhead
p121
sS'hike252'
p122
VMount Muscoco Trail
p123
sS'hike255'
p124
VWheeler Lakes
p125
sS'hike254'
p126
VStanley Mountain Trail
p127
sS'hike257'
p128
VSilver Cascade Falls Trail
p129
sS'hike256'
p130
VMount Evans Scenic Byway
p131
sS'hike408'
p132
VYankee Boy Basin Road
p133
sS'hike409'
p134
VMcNeil Trail
p135
sS'hike404'
p136
VLake Agnes Trail
p137
sS'hike405'
p138
VIndian Creek and Steven's Gulch Loop Trail
p139
sS'hike406'
p140
VLost Lakes - Devils Causeway
p141
sS'hike407'
p142
VStrawberry Park Hot Springs
p143
sS'hike400'
p144
VDoudy Draw Trail
p145
sS'hike401'
p146
VTrail 401
p147
sS'hike402'
p148
VPaul Intemann Nature Trail
p149
sS'hike403'
p150
VImogene Pass
p151
sS'hike49'
p152
VCrater Lake Trail
p153
sS'hike48'
p154
VChief Mountain Trail
p155
sS'hike47'
p156
VSilver Dollar Lake Trail
p157
sS'hike46'
p158
VButler Gulch Trail
p159
sS'hike45'
p160
VLongs Peak Trail
p161
sS'hike44'
p162
VMount Cutler Trail
p163
sS'hike43'
p164
VSpruce Mountain Trail
p165
sS'hike42'
p166
VDakota Ridge and Red Rocks Trail Loop
p167
sS'hike41'
p168
VLake Gulch Trail
p169
sS'hike40'
p170
VThe Crags Trail
p171
sS'hike310'
p172
VBoreas Pass Road
p173
sS'hike311'
p174
VSniktau Mountain Trail
p175
sS'hike312'
p176
VFalcon Trail
p177
sS'hike313'
p178
VBob and Betty Lakes Trail
p179
sS'hike314'
p180
VEmmaline Lake Trail
p181
sS'hike315'
p182
VThomas Lakes Trail
p183
sS'hike316'
p184
VWest Creek Falls
p185
sS'hike317'
p186
VKruger Rock Trail
p187
sS'hike318'
p188
VGilpin Lake Trail
p189
sS'hike319'
p190
VLake Constantine Trail
p191
sS'hike101'
p192
VHeart Lake via Rogers Pass Trail
p193
sS'hike100'
p194
VPikes Peak from the Crags Trail
p195
sS'hike103'
p196
VMaroon Bells-Snowmass Wilderness Loop
p197
sS'hike102'
p198
VHorsethief Falls Trail
p199
sS'hike105'
p200
VLake Haiyaha
p201
sS'hike104'
p202
VConundrum Creek Trail to Conundrum Hot Springs
p203
sS'hike107'
p204
VCeran Saint. Vrain Trail
p205
sS'hike106'
p206
VBierstadt Lake Loop Trail
p207
sS'hike109'
p208
VChautauqua Trail
p209
sS'hike108'
p210
VNorth Table Mountain Park
p211
sS'hike98'
p212
VDeer Creek Canyon Trail
p213
sS'hike99'
p214
VBlue Lake and Little Blue Lake Via Mitchell Lake Trail
p215
sS'hike94'
p216
VRaspberry Mountain Trail Via Ring the Peak Trail
p217
sS'hike95'
p218
VLily Mountain Trail
p219
sS'hike96'
p220
VShelf Lake Trail
p221
sS'hike97'
p222
VFish Creek Falls Trail
p223
sS'hike90'
p224
VPalmer Trail
p225
sS'hike91'
p226
VSouth Boulder Peak Trail
p227
sS'hike92'
p228
VMount Herman Trail
p229
sS'hike93'
p230
VPalmer Lake Reservoir Trail
p231
sS'hike282'
p232
VGolden Gate State Park Loop Trail
p233
sS'hike283'
p234
VMount Garfield
p235
sS'hike280'
p236
VShadow Pines Loop Trail
p237
sS'hike281'
p238
VKroenke Lake Trail
p239
sS'hike286'
p240
VLawn Lake Trail
p241
sS'hike287'
p242
VBear Creek Trail
p243
sS'hike284'
p244
VSloan Lake Park
p245
sS'hike285'
p246
VClear Creek Trail
p247
sS'hike361'
p248
VRed Mountain
p249
sS'hike360'
p250
VBrowns Creek and Little Browns Creek Trail
p251
sS'hike288'
p252
VLionshead Rock Trail
p253
sS'hike289'
p254
VPtarmigan Trail
p255
sS'hike365'
p256
VMeyers Homestead Trail
p257
sS'hike364'
p258
VLower Cascade Falls Trail
p259
sS'hike367'
p260
VPick N Sledge Grubstake Loop Trail
p261
sS'hike366'
p262
VDevils Canyon Loop Trail
p263
sS'hike219'
p264
VAdams Falls Trail
p265
sS'hike218'
p266
VAnimas Mountain Trail
p267
sS'hike215'
p268
VFlagstaff Road Trail
p269
sS'hike214'
p270
VMeyer Ranch Park Trail
p271
sS'hike217'
p272
VBlue Lakes Trail
p273
sS'hike216'
p274
VSpud Lake
p275
sS'hike211'
p276
VRampart Reservoir Trail
p277
sS'hike210'
p278
VBear Creek Trail
p279
sS'hike213'
p280
VSugarloaf Mountain Trail
p281
sS'hike212'
p282
VHall Ranch, Bitterbrush and Nelson Loop Trail 
p283
sS'hike358'
p284
VHeizer Trail
p285
sS'hike359'
p286
VPoudre River Trail
p287
sS'hike76'
p288
VBlue Lakes Trail
p289
sS'hike77'
p290
VShrine Ridge Trail
p291
sS'hike74'
p292
VStanley Canyon Trail
p293
sS'hike75'
p294
VPalmer Park Outer Loop Trail
p295
sS'hike72'
p296
VChimney Gulch Trail
p297
sS'hike73'
p298
VWalker Ranch Loop Trail
p299
sS'hike70'
p300
VThe Loch Lake Trail
p301
sS'hike71'
p302
VHelen Hunt Falls Trail
p303
sS'hike78'
p304
VTorreys Peak Kelso Ridge Trail
p305
sS'hike79'
p306
VDevil's Backbone Nature Trail
p307
sS'hike440'
p308
VMount Chiquita
p309
sS'hike441'
p310
VStorm King Mountain Memorial Trail
p311
sS'hike442'
p312
VThunder Lake Trail
p313
sS'hike443'
p314
VFinch Lake Trail
p315
sS'hike444'
p316
VSentinel Point Trail
p317
sS'hike445'
p318
VAmerican Lake Trail
p319
sS'hike350'
p320
VOuray Perimeter Trail
p321
sS'hike351'
p322
VHewlett Gulch Trail
p323
sS'hike145'
p324
VBlack Lake Trail
p325
sS'hike144'
p326
VRound Mountain Nature and Summit Trails
p327
sS'hike147'
p328
VSprague Lake Trail
p329
sS'hike146'
p330
VPanorama Point Trail
p331
sS'hike141'
p332
VHessie Trail
p333
sS'hike140'
p334
VAllenspark Trail to Calypso Cascades
p335
sS'hike143'
p336
VMissouri Lakes Trail
p337
sS'hike142'
p338
VPancake Rocks and Horsethief Falls Trail
p339
sS'hike149'
p340
VMaroon Peak Trail
p341
sS'hike148'
p342
VMount Sherman Trail
p343
sS'hike439'
p344
VDeluge Lake Trail
p345
sS'hike438'
p346
VJim Creek Trail
p347
sS'hike431'
p348
VAnne U. White Trail [CLOSED]
p349
sS'hike430'
p350
VWheeler Lake
p351
sS'hike433'
p352
VPetroglyph Point Trail
p353
sS'hike432'
p354
VM. Walter Pesman Trail
p355
sS'hike435'
p356
VDoc Holiday Grave Trail
p357
sS'hike434'
p358
VCrag Crest Trail
p359
sS'hike437'
p360
VFountain Creek Nature Trail
p361
sS'hike436'
p362
VMount Elbert East Ridge Trail
p363
sS'hike38'
p364
VBeaver Brook Trail
p365
sS'hike39'
p366
VRed Rocks Trading Post Trail
p367
sS'hike32'
p368
VHerman Gulch Trail
p369
sS'hike33'
p370
VBarr Trail to Pikes Peak
p371
sS'hike30'
p372
VAlberta Falls Trail
p373
sS'hike31'
p374
VQuandary Peak Trail
p375
sS'hike36'
p376
VLost Lake Trail
p377
sS'hike37'
p378
VChasm Lake
p379
sS'hike34'
p380
VLake Isabelle Trail
p381
sS'hike35'
p382
VBear Lake Nature Trail
p383
sS'hike246'
p384
VColumbine Lake Trail
p385
sS'hike247'
p386
VForest Lakes Trail
p387
sS'hike244'
p388
VRed Rocks Trail
p389
sS'hike245'
p390
VBluebird Lake Trail
p391
sS'hike242'
p392
VMount Massive Trail (via South East)
p393
sS'hike243'
p394
VAlluvial Fan Trail
p395
sS'hike240'
p396
VSandbeach Lake Trail
p397
sS'hike241'
p398
VWilliam's Canyon Trail
p399
sS'hike325'
p400
VFourmile Falls Trail
p401
sS'hike324'
p402
VGore Range Trail
p403
sS'hike327'
p404
VWashington Gulch Trail
p405
sS'hike326'
p406
VKohler Mesa Trail
p407
sS'hike321'
p408
VHeil Valley Ranch Trail
p409
sS'hike320'
p410
VUpper Box Canyon Falls
p411
sS'hike248'
p412
VZapata Falls Trail
p413
sS'hike322'
p414
VRattlesnake Arches Trail
p415
sS'hike118'
p416
VFlattop Mountain Trail
p417
sS'hike119'
p418
VBergen Peak and Elk Meadows Trail
p419
sS'hike116'
p420
VTimberline Falls Trail
p421
sS'hike117'
p422
VElk Meadow
p423
sS'hike114'
p424
VLoch Lomond
p425
sS'hike115'
p426
VNorth Cheyenne Columbine Trail
p427
sS'hike112'
p428
VMount Elbert South Trail Head
p429
sS'hike113'
p430
VBear Peak Canyon Loop Trail
p431
sS'hike110'
p432
VCarpenter Peak Trail
p433
sS'hike111'
p434
VInner Canyon Loop Trail
p435
sS'hike189'
p436
VUte Trail
p437
sS'hike188'
p438
VAbyss Trail
p439
sS'hike181'
p440
VBluffs Regional Park Trail
p441
sS'hike180'
p442
VEstes Cone Trail
p443
sS'hike183'
p444
VBlodgett Peak 
p445
sS'hike182'
p446
VCentennial Cone Trail
p447
sS'hike185'
p448
VMitchell Lake Trail
p449
sS'hike184'
p450
VCub Lake Trail Loop
p451
sS'hike187'
p452
VMesa-Cortina Trail to South Willow Creek Falls
p453
sS'hike186'
p454
VRabbit Mountain Loop Trail
p455
sS'hike89'
p456
VMountain Lion Trail
p457
sS'hike88'
p458
VHells Hole Trail
p459
sS'hike83'
p460
VGrays Peak Trail
p461
sS'hike82'
p462
VSpruce Creek Trail
p463
sS'hike81'
p464
VWaterton Canyon Trail
p465
sS'hike80'
p466
VCastle Trail
p467
sS'hike87'
p468
VBelcher Hill Trail
p469
sS'hike86'
p470
VFern Lake Trail
p471
sS'hike85'
p472
VArthur's Rock Trail
p473
sS'hike84'
p474
VRed Rocks Trail
p475
sS'hike279'
p476
VBighorn Creek Trail
p477
sS'hike278'
p478
VGold Camp Road
p479
sS'hike277'
p480
VStaunton Ranch Loop
p481
sS'hike276'
p482
VWest Ridge Trail from Loveland Pass
p483
sS'hike275'
p484
VMount Sneffels Classic Route - Yankee Boy Basin
p485
sS'hike274'
p486
VForsythe Canyon to Waterfall and Gross Reservoir
p487
sS'hike273'
p488
VSnowshoe Hare Trail
p489
sS'hike272'
p490
VMount Ida Trail
p491
sS'hike271'
p492
VMount Yale Summit Trail
p493
sS'hike270'
p494
VThe Chutes Trail
p495
sS'hike208'
p496
VWhite Ranch Loop
p497
sS'hike209'
p498
VO'Fallon Park Upper Loop Trail
p499
sS'hike202'
p500
VPikes Peak from Devils Playground
p501
sS'hike203'
p502
VMount Morrison Trail
p503
sS'hike200'
p504
VCrystal Lake Trail
p505
sS'hike201'
p506
VShadow Canyon Trail to South Boulder Peak
p507
sS'hike206'
p508
VSiamese Twins Loop Trail
p509
sS'hike207'
p510
VTenderfoot Mountain
p511
sS'hike204'
p512
VFourth of July Mine Trail
p513
sS'hike205'
p514
VForgotten Valley
p515
sS'hike389'
p516
VBear Peak via Shanahan Ridge
p517
sS'hike388'
p518
VBald Mountain Trail
p519
sS'hike383'
p520
VBlue Sky Trail
p521
sS'hike382'
p522
VTurquoise Lakes Trail
p523
sS'hike381'
p524
VMeadow Creek Trail
p525
sS'hike380'
p526
VKineo Mountain and Mount Buckhorn Area Trails
p527
sS'hike387'
p528
VMount Harvard Trail
p529
sS'hike386'
p530
VBeartracks Lake Trail
p531
sS'hike385'
p532
VSerpents Trail
p533
sS'hike384'
p534
VHandies Peak
p535
sS'hike65'
p536
VCatamount Falls Trail
p537
sS'hike64'
p538
VParmalee Trail Loop
p539
sS'hike67'
p540
VRattlesnake Gulch Trail
p541
sS'hike66'
p542
VFountain Valley Loop Trail
p543
sS'hike61'
p544
VCoyote Song Trail Loop
p545
sS'hike60'
p546
VGreyrock Trail
p547
sS'hike63'
p548
VMesa Trail
p549
sS'hike62'
p550
VMounts Democrat, Cameron, Lincoln, and Bross Trail
p551
sS'hike69'
p552
VMeadowlark Plymouth Creek Loop Trail
p553
sS'hike68'
p554
VRocks and Vistas Garden of the Gods Trail
p555
sS'hike376'
p556
VJud Wiebe Memorial Trail
p557
sS'hike377'
p558
VTenderfoot Trail
p559
sS'hike374'
p560
VRed Hill/Mushroom Rock trail
p561
sS'hike375'
p562
VFish Creek to Long Lake
p563
sS'hike372'
p564
VCherry Creek Trail
p565
sS'hike373'
p566
VRocky Mountain Arsenal National Wildlife Refuge Lakes Loop
p567
sS'hike370'
p568
VLong Lake Trail
p569
sS'hike371'
p570
VBelcher Hill
p571
sS'hike378'
p572
VWillow Lakes Trail
p573
sS'hike379'
p574
VEvergreen Lake Trail
p575
sS'hike127'
p576
VWaldo Canyon Loop Trail [CLOSED]
p577
sS'hike126'
p578
VMount Falcon Park Upper Loop
p579
sS'hike125'
p580
VLair O' the Bear Trail
p581
sS'hike124'
p582
VCascade Falls
p583
sS'hike123'
p584
VUte Valley Park Loop Trail
p585
sS'hike122'
p586
VGrays Peak Trail
p587
sS'hike121'
p588
VDeer Mountain Trail
p589
sS'hike120'
p590
VBridal Veil Falls Trail
p591
sS'hike129'
p592
VBuffalo Mountain Trail
p593
sS'hike128'
p594
VBrainard Lake Trail
p595
sS'hike152'
p596
VMount of the Holy Cross Trail
p597
sS'hike153'
p598
VEagles Peak Trail
p599
sS'hike150'
p600
VDevils Playground from the Crags
p601
sS'hike151'
p602
VRawhide Wrangler Trail
p603
sS'hike156'
p604
VLookout Mountain Trail
p605
sS'hike157'
p606
VSusan G. Bretag Trail and Palmer Trail Loop
p607
sS'hike154'
p608
VNorth Ten Mile Creek Trail
p609
sS'hike155'
p610
VGlacier Gorge
p611
sS'hike158'
p612
VSouth Table Mountain Trail
p613
sS'hike159'
p614
VHogback Ridge Summit Trail
p615
sS'hike344'
p616
VBuckhorn Loop (Captain Jack's Frontside) Trail
p617
sS'hike2'
p618
VBeaver Brook /Chavez Trail Loop
p619
sS'hike3'
p620
VThe Incline Trail
p621
sS'hike0'
p622
VMaxwell Falls Lower Trail
p623
sS'hike1'
p624
VRoyal Arch Trail
p625
sS'hike6'
p626
VMount Falcon Castle Trail
p627
sS'hike7'
p628
VMount Sanitas Trail
p629
sS'hike4'
p630
VEmerald Lake Trail
p631
sS'hike349'
p632
VHarvard Lakes Trail
p633
sS'hike348'
p634
VTanglewood Trail
p635
sS'hike347'
p636
VChief Ouray Mine Trail
p637
sS'hike346'
p638
VLakes of the Clouds
p639
sS'hike345'
p640
VNymph Lake Trail
p641
sS'hike5'
p642
VHanging Lake Trail 
p643
sS'hike343'
p644
VPiedra River Trail
p645
sS'hike342'
p646
VBlue Lake Trail
p647
sS'hike341'
p648
VSmuggler Mountain Trail
p649
sS'hike340'
p650
VBurro Loop Trail
p651
sS'hike309'
p652
VWest Maroon Trail
p653
sS'hike29'
p654
VMount Galbraith Trail
p655
sS'hike28'
p656
VCrater Lakes Trail
p657
sS'hike9'
p658
VMount Bierstadt Trail
p659
sS'hike21'
p660
VSt. Mary's Glacier
p661
sS'hike20'
p662
VOuzel Falls Trail
p663
sS'hike23'
p664
VBear Peak Trail
p665
sS'hike22'
p666
VHorsetooth Falls and Horsetooth Rock Trail
p667
sS'hike25'
p668
VRed Rocks and Morrison Slide Trails
p669
sS'hike24'
p670
VMcCullough Gulch Trail 
p671
sS'hike27'
p672
VSky Pond Trail
p673
sS'hike26'
p674
VEldorado Canyon Trail
p675
sS'hike233'
p676
VPeaks Trail 
p677
sS'hike232'
p678
VArapaho Glacier Trail
p679
sS'hike231'
p680
VMount Evans and Mount Spalding Loop Trail
p681
sS'hike230'
p682
VRed Rocks Trail
p683
sS'hike237'
p684
VNewlin Creek Trail
p685
sS'hike236'
p686
VWaterdog Lakes Trail
p687
sS'hike235'
p688
VLegault Mountain Trail
p689
sS'hike234'
p690
VWatershed North Trail
p691
sS'hike332'
p692
VJess Weaver Trail
p693
sS'hike333'
p694
VJames Peak Trail
p695
sS'hike239'
p696
VMount Audubon Trail
p697
sS'hike331'
p698
VSapphire Point Overlook Trail
p699
sS'hike336'
p700
VBerrypicker Trail
p701
sS'hike337'
p702
VOld Dillon Reservoir Trail
p703
sS'hike334'
p704
VChatfield Dog Park
p705
sS'hike335'
p706
VBison Peak Summit Trail
p707
sS'hike169'
p708
VRaven's Roost and Oxen Draw Loop Trail
p709
sS'hike168'
p710
VPitkin Lake Trail
p711
sS'hike163'
p712
VIndependence Mountain Trail at Pence Park
p713
sS'hike162'
p714
VDawson Butte Ranch Open Space Trail
p715
sS'hike161'
p716
VMount Rosa Trail
p717
sS'hike160'
p718
VBetasso Preserve Trail
p719
sS'hike167'
p720
VOdessa Lake Via Fern Lake Trail
p721
sS'hike166'
p722
VHomestead and Mesa Loop Trail
p723
sS'hike165'
p724
VStaunton Ranch and Overlook Trail
p725
sS'hike164'
p726
VSouth Rim Loop Trail
p727
sS'hike196'
p728
VBergen Peak Loop Trail
p729
sS'hike197'
p730
VTempleton Trail
p731
sS'hike194'
p732
VCoyote Ridge Trail
p733
sS'hike195'
p734
VRed Rocks / Dakota Ridge Loop
p735
sS'hike192'
p736
VBurro Trail to Windy Peak
p737
sS'hike193'
p738
VRainbow Hot Springs
p739
sS'hike190'
p740
VBruin Bluff Trail Loop
p741
sS'hike191'
p742
VGoat Mountain Trail
p743
sS'hike338'
p744
VRainbow Lake Trail
p745
sS'hike198'
p746
VRaccoon Trail
p747
sS'hike199'
p748
VMount Spalding Trail
p749
sS'hike426'
p750
VNo Thoroughfare Canyon
p751
sS'hike427'
p752
VShadow Mountain Trail
p753
sS'hike424'
p754
VLake Estes Trail
p755
sS'hike339'
p756
VHighline Canal Trail
p757
sS'hike422'
p758
VRabbit Ears Pass
p759
sS'hike423'
p760
VFancy Pass Trail
p761
sS'hike420'
p762
VShanahan Ridge Trail
p763
sS'hike421'
p764
VBrookside-McCurdy Trail
p765
sS'hike428'
p766
VOverlook Trail
p767
sS'hike429'
p768
VGarden of the Gods Loop Trail
p769
sS'hike330'
p770
VClear Creek Trail
p771
sS'hike238'
p772
VJudd Falls Trail
p773
sS'hike268'
p774
VAndrews Glacier Trail
p775
sS'hike269'
p776
VSallie Barber Mine Trail
p777
sS'hike264'
p778
VBurro Trail
p779
sS'hike265'
p780
VHunter Valley Trail
p781
sS'hike266'
p782
VMount Elbert South Trail
p783
sS'hike267'
p784
VMad Creek Trail
p785
sS'hike260'
p786
VThree Mile Creek Trail
p787
sS'hike261'
p788
VHunts Lake Trail 
p789
sS'hike262'
p790
VEast Canyon Preservation Trail
p791
sS'hike263'
p792
VLower Cataract Loop Trail
p793
sS'hike419'
p794
VBible Park Trails
p795
sS'hike418'
p796
VCascade Creek Trail
p797
sS'hike417'
p798
VEast Maroon Trail
p799
sS'hike416'
p800
VRed Rocks of Woodland Park
p801
sS'hike415'
p802
VSanta Fe Regional Trail
p803
sS'hike414'
p804
VChasm Falls Trail via Old Fall River Road
p805
sS'hike413'
p806
VDevil's Backbone Trail - Extended Route
p807
sS'hike412'
p808
VCoyote and Squirrel Loop Trails
p809
sS'hike411'
p810
VLovell Gulch Trail
p811
sS'hike410'
p812
VNotch Mountain
p813
sS'hike398'
p814
VLyons Overlook Trail
p815
sS'hike399'
p816
VHigh Dune Trail
p817
sS'hike390'
p818
VVallecito Creek Trail
p819
sS'hike391'
p820
VPinewood Lake Trail
p821
sS'hike392'
p822
VNight Bird Trail
p823
sS'hike393'
p824
VMeyers Ranch
p825
sS'hike394'
p826
VHighland Mary Lake Trail
p827
sS'hike395'
p828
VFox Run Park- Fallen Timbers Trail
p829
sS'hike396'
p830
VLost Man Trail
p831
sS'hike397'
p832
VAmpitheatre Trail
p833
sS'hike50'
p834
VGreen Mountain Loop
p835
sS'hike51'
p836
VChicago Lakes Trail
p837
sS'hike52'
p838
VLily Pad Lake Trail
p839
sS'hike53'
p840
VRainbow Lakes Trail
p841
sS'hike54'
p842
VDevils Thumb Pass and King Lake Trail
p843
sS'hike55'
p844
VIce Lake Basin Trail
p845
sS'hike56'
p846
VGoose Creek Trail
p847
sS'hike57'
p848
VMills Lake, Black Lake, Frozen Lake Trail
p849
sS'hike58'
p850
VTwin Sisters Peak Trail
p851
sS'hike59'
p852
VMallory Cave
p853
sS'hike303'
p854
VPaint Mines Trail
p855
sS'hike302'
p856
VRidgeline Open Space
p857
sS'hike301'
p858
VKing Lake Trail
p859
sS'hike300'
p860
VIsabelle Glacier Trail
p861
sS'hike307'
p862
VMeadow Creek Trail to Eccles Pass
p863
sS'hike306'
p864
VLake Helene Trail
p865
sS'hike305'
p866
VHIdden Mesa Trail
p867
sS'hike304'
p868
VGross North Shore Trail
p869
sS'hike8'
p870
VMohawk Lakes Trail
p871
sS'hike308'
p872
VCrosier Mountain Trail
p873
sS'hike134'
p874
VArapahoe Pass and Lake Dorothy Trail
p875
sS'hike135'
p876
VBear Creek Lake Trail Loop
p877
sS'hike136'
p878
VMount Galbraith Loop
p879
sS'hike137'
p880
VRainbow Gulch
p881
sS'hike130'
p882
VBeaver Lake Trail
p883
sS'hike131'
p884
VGreen Mountain West Trail
p885
sS'hike132'
p886
VButton Rock Preserve: Sleepy Lion Trail
p887
sS'hike133'
p888
VFowler Trail
p889
sS'hike138'
p890
VMount Royal Trail
p891
sS'hike139'
p892
VHorseshoe Trail to Frazer Meadow
p893
s.